
Main.elf:     file format elf32-avr

Sections:
Idx Name          Size      VMA       LMA       File off  Algn
  0 .text         000035b2  00000000  00000000  00000094  2**1
                  CONTENTS, ALLOC, LOAD, READONLY, CODE
  1 .data         0000004e  00800060  000035b2  00003646  2**0
                  CONTENTS, ALLOC, LOAD, DATA
  2 .bss          000004d7  008000ae  008000ae  00003694  2**0
                  ALLOC
  3 .stab         00001968  00000000  00000000  00003694  2**2
                  CONTENTS, READONLY, DEBUGGING
  4 .stabstr      000002e1  00000000  00000000  00004ffc  2**0
                  CONTENTS, READONLY, DEBUGGING
  5 .debug_aranges 00000160  00000000  00000000  000052dd  2**0
                  CONTENTS, READONLY, DEBUGGING
  6 .debug_pubnames 000018be  00000000  00000000  0000543d  2**0
                  CONTENTS, READONLY, DEBUGGING
  7 .debug_info   00004ee3  00000000  00000000  00006cfb  2**0
                  CONTENTS, READONLY, DEBUGGING
  8 .debug_abbrev 00001272  00000000  00000000  0000bbde  2**0
                  CONTENTS, READONLY, DEBUGGING
  9 .debug_line   000036ec  00000000  00000000  0000ce50  2**0
                  CONTENTS, READONLY, DEBUGGING
 10 .debug_frame  00000a50  00000000  00000000  0001053c  2**2
                  CONTENTS, READONLY, DEBUGGING
 11 .debug_str    000015d7  00000000  00000000  00010f8c  2**0
                  CONTENTS, READONLY, DEBUGGING
 12 .debug_loc    00001d8d  00000000  00000000  00012563  2**0
                  CONTENTS, READONLY, DEBUGGING
 13 .debug_pubtypes 00000427  00000000  00000000  000142f0  2**0
                  CONTENTS, READONLY, DEBUGGING
 14 .debug_ranges 000000b8  00000000  00000000  00014717  2**0
                  CONTENTS, READONLY, DEBUGGING

Disassembly of section .text:

00000000 <__vectors>:
       0:	0c 94 fe 00 	jmp	0x1fc	; 0x1fc <__ctors_end>
       4:	0c 94 62 01 	jmp	0x2c4	; 0x2c4 <__vector_1>
       8:	0c 94 8e 01 	jmp	0x31c	; 0x31c <__vector_2>
       c:	0c 94 ba 01 	jmp	0x374	; 0x374 <__vector_3>
      10:	0c 94 1b 01 	jmp	0x236	; 0x236 <__bad_interrupt>
      14:	0c 94 1b 01 	jmp	0x236	; 0x236 <__bad_interrupt>
      18:	0c 94 1b 01 	jmp	0x236	; 0x236 <__bad_interrupt>
      1c:	0c 94 1b 01 	jmp	0x236	; 0x236 <__bad_interrupt>
      20:	0c 94 1b 01 	jmp	0x236	; 0x236 <__bad_interrupt>
      24:	0c 94 1b 01 	jmp	0x236	; 0x236 <__bad_interrupt>
      28:	0c 94 23 03 	jmp	0x646	; 0x646 <__vector_10>
      2c:	0c 94 1b 01 	jmp	0x236	; 0x236 <__bad_interrupt>
      30:	0c 94 1b 01 	jmp	0x236	; 0x236 <__bad_interrupt>
      34:	0c 94 28 06 	jmp	0xc50	; 0xc50 <__vector_13>
      38:	0c 94 1b 01 	jmp	0x236	; 0x236 <__bad_interrupt>
      3c:	0c 94 1b 01 	jmp	0x236	; 0x236 <__bad_interrupt>
      40:	0c 94 1b 01 	jmp	0x236	; 0x236 <__bad_interrupt>
      44:	0c 94 1b 01 	jmp	0x236	; 0x236 <__bad_interrupt>
      48:	0c 94 1b 01 	jmp	0x236	; 0x236 <__bad_interrupt>
      4c:	0c 94 1e 09 	jmp	0x123c	; 0x123c <__vector_19>
      50:	0c 94 1b 01 	jmp	0x236	; 0x236 <__bad_interrupt>

00000054 <__c.2170>:
      54:	46 6f 6e 74 79 73 20 49 43 54 20 54 32 31 00        Fontys ICT T21.

00000063 <__c.2168>:
      63:	52 65 73 63 75 65 62 6f 74 73 00                    Rescuebots.

0000006e <__c.2166>:
      6e:	23 23 23 23 23 23 23 23 23 23 23 23 23 23 23 23     ################
	...

0000007f <__c.2164>:
      7f:	23 23 23 23 23 23 23 23 23 23 23 23 23 23 23 23     ################
	...

00000090 <__c.2162>:
      90:	0a 0a 52 65 73 63 75 65 62 6f 74 73 20 54 32 31     ..Rescuebots T21
      a0:	0a 00                                               ..

000000a2 <__c.2336>:
      a2:	64 69 73 74 33 36 30 3a 00                          dist360:.

000000ab <__c.2331>:
      ab:	64 65 6c 74 61 3a 00                                delta:.

000000b2 <__c.2328>:
      b2:	74 6f 74 61 6c 64 65 6c 74 61 3a 00                 totaldelta:.

000000be <__c.2326>:
      be:	63 6f 73 74 3a 00                                   cost:.

000000c4 <__c.2212>:
      c4:	0a 49 32 43 20 45 52 52 4f 52 20 2d 20 54 57 49     .I2C ERROR - TWI
      d4:	20 53 54 41 54 45 3a 20 30 78 00                     STATE: 0x.

000000df <__c.2094>:
      df:	66 6f 75 6e 64 2e 00                                found..

000000e6 <__c.2092>:
      e6:	4e 6f 20 62 65 61 63 6f 6e 00                       No beacon.

000000f0 <__c.2087>:
      f0:	42 45 41 43 4f 4e 20 6f 66 20 4c 49 47 48 54 00     BEACON of LIGHT.

00000100 <__c.2085>:
     100:	2a 2a 2a 42 65 68 6f 6c 64 20 74 68 65 2a 2a 2a     ***Behold the***
	...

00000111 <__c.2080>:
     111:	62 65 61 63 6f 6e 00                                beacon.

00000118 <__c.2078>:
     118:	4c 6f 6f 6b 69 6e 67 20 66 6f 72 00                 Looking for.

00000124 <__c.2067>:
	...

00000125 <__c.2065>:
     125:	54 75 72 6e 69 6e 67 20 31 38 30 00                 Turning 180.

00000131 <__c.2062>:
	...

00000132 <__c.2060>:
     132:	54 75 72 6e 69 6e 67 20 52 69 67 68 74 00           Turning Right.

00000140 <__c.2057>:
	...

00000141 <__c.2055>:
     141:	4d 6f 76 69 6e 67 20 46 6f 72 77 61 72 64 00        Moving Forward.

00000150 <__c.2051>:
	...

00000151 <__c.2049>:
     151:	54 75 72 6e 69 6e 67 20 4c 65 66 74 00              Turning Left.

0000015e <__c.2043>:
	...

0000015f <__c.2041>:
     15f:	4c 65 61 76 69 6e 67 20 43 65 6c 6c 00              Leaving Cell.

0000016c <__c.2036>:
	...

0000016d <__c.2034>:
     16d:	45 6e 74 65 72 69 6e 67 20 43 65 6c 6c 00           Entering Cell.

0000017b <__c.2029>:
     17b:	50 72 6f 63 65 73 73 00                             Process.

00000183 <__c.2027>:
     183:	53 74 61 72 74 65 64 20 46 69 6e 64 69 6e 67 00     Started Finding.

00000193 <__c.2022>:
	...

00000194 <__c.2020>:
     194:	4c 3a 20 20 20 20 52 3a 00                          L:    R:.

0000019d <__c.2014>:
     19d:	58 3a 20 20 59 3a 20 20 44 3a 20 20 00              X:  Y:  D:  .

000001aa <__c.2012>:
     1aa:	50 6c 61 63 65 20 6d 65 20 61 74 3a 00              Place me at:.

000001b7 <__c.2005>:
     1b7:	58 3a 20 20 59 3a 20 20 44 3a 20 20 00              X:  Y:  D:  .

000001c4 <__c.2003>:
     1c4:	42 72 69 65 66 69 6e 67 3a 00                       Briefing:.

000001ce <__c.1996>:
     1ce:	64 65 62 72 69 65 66 69 6e 67 2e 00                 debriefing..

000001da <__c.1994>:
     1da:	57 61 69 74 69 6e 67 20 66 6f 72 00                 Waiting for.

000001e6 <__c.1989>:
     1e6:	62 72 69 65 66 69 6e 67 2e 00                       briefing..

000001f0 <__c.1987>:
     1f0:	57 61 69 74 69 6e 67 20 66 6f 72 00                 Waiting for.

000001fc <__ctors_end>:
     1fc:	11 24       	eor	r1, r1
     1fe:	1f be       	out	0x3f, r1	; 63
     200:	cf e5       	ldi	r28, 0x5F	; 95
     202:	d8 e0       	ldi	r29, 0x08	; 8
     204:	de bf       	out	0x3e, r29	; 62
     206:	cd bf       	out	0x3d, r28	; 61

00000208 <__do_copy_data>:
     208:	10 e0       	ldi	r17, 0x00	; 0
     20a:	a0 e6       	ldi	r26, 0x60	; 96
     20c:	b0 e0       	ldi	r27, 0x00	; 0
     20e:	e2 eb       	ldi	r30, 0xB2	; 178
     210:	f5 e3       	ldi	r31, 0x35	; 53
     212:	02 c0       	rjmp	.+4      	; 0x218 <__do_copy_data+0x10>
     214:	05 90       	lpm	r0, Z+
     216:	0d 92       	st	X+, r0
     218:	ae 3a       	cpi	r26, 0xAE	; 174
     21a:	b1 07       	cpc	r27, r17
     21c:	d9 f7       	brne	.-10     	; 0x214 <__do_copy_data+0xc>

0000021e <__do_clear_bss>:
     21e:	15 e0       	ldi	r17, 0x05	; 5
     220:	ae ea       	ldi	r26, 0xAE	; 174
     222:	b0 e0       	ldi	r27, 0x00	; 0
     224:	01 c0       	rjmp	.+2      	; 0x228 <.do_clear_bss_start>

00000226 <.do_clear_bss_loop>:
     226:	1d 92       	st	X+, r1

00000228 <.do_clear_bss_start>:
     228:	a5 38       	cpi	r26, 0x85	; 133
     22a:	b1 07       	cpc	r27, r17
     22c:	e1 f7       	brne	.-8      	; 0x226 <.do_clear_bss_loop>
     22e:	0e 94 55 01 	call	0x2aa	; 0x2aa <main>
     232:	0c 94 d7 1a 	jmp	0x35ae	; 0x35ae <_exit>

00000236 <__bad_interrupt>:
     236:	0c 94 00 00 	jmp	0	; 0x0 <__vectors>

0000023a <initMain>:
#include "RP6Control_I2CMasterLib.h"


void initMain(void)
{
	initRP6Control(); // Always call this first! The Processor will not work
     23a:	0e 94 55 05 	call	0xaaa	; 0xaaa <initRP6Control>
					  // correctly otherwise.

	initCoreControl();
     23e:	0e 94 bc 0d 	call	0x1b78	; 0x1b78 <initCoreControl>
	writeString_P("\n\nRescuebots T21\n");
     242:	80 e9       	ldi	r24, 0x90	; 144
     244:	90 e0       	ldi	r25, 0x00	; 0
     246:	0e 94 9a 05 	call	0xb34	; 0xb34 <writeNStringP>
	setLEDs(0b1111);
     24a:	8f e0       	ldi	r24, 0x0F	; 15
     24c:	0e 94 bd 02 	call	0x57a	; 0x57a <setLEDs>

	showScreenLCD("################", "################");
     250:	8f e7       	ldi	r24, 0x7F	; 127
     252:	90 e0       	ldi	r25, 0x00	; 0
     254:	6e e6       	ldi	r22, 0x6E	; 110
     256:	70 e0       	ldi	r23, 0x00	; 0
     258:	0e 94 fe 04 	call	0x9fc	; 0x9fc <_showScreenLCD_P>

	// Play a sound to indicate that our program starts:
	sound(100,40,64);
     25c:	84 e6       	ldi	r24, 0x64	; 100
     25e:	68 e2       	ldi	r22, 0x28	; 40
     260:	70 e0       	ldi	r23, 0x00	; 0
     262:	0e 94 cc 03 	call	0x798	; 0x798 <beep>
     266:	88 e6       	ldi	r24, 0x68	; 104
     268:	90 e0       	ldi	r25, 0x00	; 0
     26a:	0e 94 f4 03 	call	0x7e8	; 0x7e8 <mSleep>
	sound(170,40,0);
     26e:	8a ea       	ldi	r24, 0xAA	; 170
     270:	68 e2       	ldi	r22, 0x28	; 40
     272:	70 e0       	ldi	r23, 0x00	; 0
     274:	0e 94 cc 03 	call	0x798	; 0x798 <beep>
     278:	88 e2       	ldi	r24, 0x28	; 40
     27a:	90 e0       	ldi	r25, 0x00	; 0
     27c:	0e 94 f4 03 	call	0x7e8	; 0x7e8 <mSleep>
	mSleep(400);
     280:	80 e9       	ldi	r24, 0x90	; 144
     282:	91 e0       	ldi	r25, 0x01	; 1
     284:	0e 94 f4 03 	call	0x7e8	; 0x7e8 <mSleep>
	setLEDs(0b0000);
     288:	80 e0       	ldi	r24, 0x00	; 0
     28a:	0e 94 bd 02 	call	0x57a	; 0x57a <setLEDs>

	showScreenLCD("Rescuebots", "Fontys ICT T21");
     28e:	83 e6       	ldi	r24, 0x63	; 99
     290:	90 e0       	ldi	r25, 0x00	; 0
     292:	64 e5       	ldi	r22, 0x54	; 84
     294:	70 e0       	ldi	r23, 0x00	; 0
     296:	0e 94 fe 04 	call	0x9fc	; 0x9fc <_showScreenLCD_P>
	mSleep(1000);
     29a:	88 ee       	ldi	r24, 0xE8	; 232
     29c:	93 e0       	ldi	r25, 0x03	; 3
     29e:	0e 94 f4 03 	call	0x7e8	; 0x7e8 <mSleep>
}
     2a2:	08 95       	ret

000002a4 <updateMain>:

void updateMain(void)
{
	updateCoreControl();
     2a4:	0e 94 5a 12 	call	0x24b4	; 0x24b4 <updateCoreControl>
}
     2a8:	08 95       	ret

000002aa <main>:

int main(void)
{
	initMain();
     2aa:	0e 94 1d 01 	call	0x23a	; 0x23a <initMain>
	mSleep(1000);
}

void updateMain(void)
{
	updateCoreControl();
     2ae:	0e 94 5a 12 	call	0x24b4	; 0x24b4 <updateCoreControl>
     2b2:	fd cf       	rjmp	.-6      	; 0x2ae <main+0x4>

000002b4 <INT0_event_DUMMY>:
// Event Handlers. 
// Please make sure that you keep the Event Handler Functions as
// short as possible! 
// --> You usually don't need this stuff. 

void INT0_event_DUMMY(void){}
     2b4:	08 95       	ret

000002b6 <INT1_event_DUMMY>:
ISR (INT0_vect)
{
	INT0_eventHandler();
}

void INT1_event_DUMMY(void){}
     2b6:	08 95       	ret

000002b8 <INT2_event_DUMMY>:
ISR (INT1_vect)
{
	INT1_eventHandler();
}

void INT2_event_DUMMY(void){}
     2b8:	08 95       	ret

000002ba <INT0_setEventHandler>:

void INT0_event_DUMMY(void){}
static void (*INT0_eventHandler)(void) = INT0_event_DUMMY;
void INT0_setEventHandler(void (*i0eventHandler)(void))
{
	INT0_eventHandler = i0eventHandler;
     2ba:	90 93 65 00 	sts	0x0065, r25
     2be:	80 93 64 00 	sts	0x0064, r24
}
     2c2:	08 95       	ret

000002c4 <__vector_1>:

/**
 * External Interrupt 0 ISR
 */
ISR (INT0_vect)
{
     2c4:	1f 92       	push	r1
     2c6:	0f 92       	push	r0
     2c8:	0f b6       	in	r0, 0x3f	; 63
     2ca:	0f 92       	push	r0
     2cc:	11 24       	eor	r1, r1
     2ce:	2f 93       	push	r18
     2d0:	3f 93       	push	r19
     2d2:	4f 93       	push	r20
     2d4:	5f 93       	push	r21
     2d6:	6f 93       	push	r22
     2d8:	7f 93       	push	r23
     2da:	8f 93       	push	r24
     2dc:	9f 93       	push	r25
     2de:	af 93       	push	r26
     2e0:	bf 93       	push	r27
     2e2:	ef 93       	push	r30
     2e4:	ff 93       	push	r31
	INT0_eventHandler();
     2e6:	e0 91 64 00 	lds	r30, 0x0064
     2ea:	f0 91 65 00 	lds	r31, 0x0065
     2ee:	09 95       	icall
}
     2f0:	ff 91       	pop	r31
     2f2:	ef 91       	pop	r30
     2f4:	bf 91       	pop	r27
     2f6:	af 91       	pop	r26
     2f8:	9f 91       	pop	r25
     2fa:	8f 91       	pop	r24
     2fc:	7f 91       	pop	r23
     2fe:	6f 91       	pop	r22
     300:	5f 91       	pop	r21
     302:	4f 91       	pop	r20
     304:	3f 91       	pop	r19
     306:	2f 91       	pop	r18
     308:	0f 90       	pop	r0
     30a:	0f be       	out	0x3f, r0	; 63
     30c:	0f 90       	pop	r0
     30e:	1f 90       	pop	r1
     310:	18 95       	reti

00000312 <INT1_setEventHandler>:

void INT1_event_DUMMY(void){}
static void (*INT1_eventHandler)(void) = INT1_event_DUMMY;
void INT1_setEventHandler(void (*i1eventHandler)(void))
{
	INT1_eventHandler = i1eventHandler;
     312:	90 93 63 00 	sts	0x0063, r25
     316:	80 93 62 00 	sts	0x0062, r24
}
     31a:	08 95       	ret

0000031c <__vector_2>:

/**
 * External Interrupt 1 ISR
 */
ISR (INT1_vect)
{
     31c:	1f 92       	push	r1
     31e:	0f 92       	push	r0
     320:	0f b6       	in	r0, 0x3f	; 63
     322:	0f 92       	push	r0
     324:	11 24       	eor	r1, r1
     326:	2f 93       	push	r18
     328:	3f 93       	push	r19
     32a:	4f 93       	push	r20
     32c:	5f 93       	push	r21
     32e:	6f 93       	push	r22
     330:	7f 93       	push	r23
     332:	8f 93       	push	r24
     334:	9f 93       	push	r25
     336:	af 93       	push	r26
     338:	bf 93       	push	r27
     33a:	ef 93       	push	r30
     33c:	ff 93       	push	r31
	INT1_eventHandler();
     33e:	e0 91 62 00 	lds	r30, 0x0062
     342:	f0 91 63 00 	lds	r31, 0x0063
     346:	09 95       	icall
}
     348:	ff 91       	pop	r31
     34a:	ef 91       	pop	r30
     34c:	bf 91       	pop	r27
     34e:	af 91       	pop	r26
     350:	9f 91       	pop	r25
     352:	8f 91       	pop	r24
     354:	7f 91       	pop	r23
     356:	6f 91       	pop	r22
     358:	5f 91       	pop	r21
     35a:	4f 91       	pop	r20
     35c:	3f 91       	pop	r19
     35e:	2f 91       	pop	r18
     360:	0f 90       	pop	r0
     362:	0f be       	out	0x3f, r0	; 63
     364:	0f 90       	pop	r0
     366:	1f 90       	pop	r1
     368:	18 95       	reti

0000036a <INT2_setEventHandler>:

void INT2_event_DUMMY(void){}
static void (*INT2_eventHandler)(void) = INT2_event_DUMMY;
void INT2_setEventHandler(void (*i2eventHandler)(void))
{
	INT2_eventHandler = i2eventHandler;
     36a:	90 93 61 00 	sts	0x0061, r25
     36e:	80 93 60 00 	sts	0x0060, r24
}
     372:	08 95       	ret

00000374 <__vector_3>:

/**
 * External Interrupt 2 ISR
 */
ISR (INT2_vect)
{
     374:	1f 92       	push	r1
     376:	0f 92       	push	r0
     378:	0f b6       	in	r0, 0x3f	; 63
     37a:	0f 92       	push	r0
     37c:	11 24       	eor	r1, r1
     37e:	2f 93       	push	r18
     380:	3f 93       	push	r19
     382:	4f 93       	push	r20
     384:	5f 93       	push	r21
     386:	6f 93       	push	r22
     388:	7f 93       	push	r23
     38a:	8f 93       	push	r24
     38c:	9f 93       	push	r25
     38e:	af 93       	push	r26
     390:	bf 93       	push	r27
     392:	ef 93       	push	r30
     394:	ff 93       	push	r31
	INT2_eventHandler();
     396:	e0 91 60 00 	lds	r30, 0x0060
     39a:	f0 91 61 00 	lds	r31, 0x0061
     39e:	09 95       	icall
}
     3a0:	ff 91       	pop	r31
     3a2:	ef 91       	pop	r30
     3a4:	bf 91       	pop	r27
     3a6:	af 91       	pop	r26
     3a8:	9f 91       	pop	r25
     3aa:	8f 91       	pop	r24
     3ac:	7f 91       	pop	r23
     3ae:	6f 91       	pop	r22
     3b0:	5f 91       	pop	r21
     3b2:	4f 91       	pop	r20
     3b4:	3f 91       	pop	r19
     3b6:	2f 91       	pop	r18
     3b8:	0f 90       	pop	r0
     3ba:	0f be       	out	0x3f, r0	; 63
     3bc:	0f 90       	pop	r0
     3be:	1f 90       	pop	r1
     3c0:	18 95       	reti

000003c2 <readADC>:
 * is complete. 
 *
 */
uint16_t readADC(uint8_t channel)
{
	if((ADCSRA & (1<<ADSC))) return 0; // check if ADC is buisy...
     3c2:	36 99       	sbic	0x06, 6	; 6
     3c4:	0a c0       	rjmp	.+20     	; 0x3da <readADC+0x18>
	ADMUX = (1<<REFS0) | (0<<REFS1) | (channel<<MUX0);
     3c6:	80 64       	ori	r24, 0x40	; 64
     3c8:	87 b9       	out	0x07, r24	; 7
	ADCSRA = (0<<ADIE) | (1<<ADSC) | (1<<ADEN) | (1<<ADPS2) | (1<<ADPS1) | (1<<ADIF);
     3ca:	86 ed       	ldi	r24, 0xD6	; 214
     3cc:	86 b9       	out	0x06, r24	; 6
	while ((ADCSRA & (1<<ADSC))); 
     3ce:	36 99       	sbic	0x06, 6	; 6
     3d0:	fe cf       	rjmp	.-4      	; 0x3ce <readADC+0xc>
	ADCSRA |= (1<<ADIF);
     3d2:	34 9a       	sbi	0x06, 4	; 6
	return ADC;
     3d4:	24 b1       	in	r18, 0x04	; 4
     3d6:	35 b1       	in	r19, 0x05	; 5
     3d8:	02 c0       	rjmp	.+4      	; 0x3de <readADC+0x1c>
 * is complete. 
 *
 */
uint16_t readADC(uint8_t channel)
{
	if((ADCSRA & (1<<ADSC))) return 0; // check if ADC is buisy...
     3da:	20 e0       	ldi	r18, 0x00	; 0
     3dc:	30 e0       	ldi	r19, 0x00	; 0
	ADMUX = (1<<REFS0) | (0<<REFS1) | (channel<<MUX0);
	ADCSRA = (0<<ADIE) | (1<<ADSC) | (1<<ADEN) | (1<<ADPS2) | (1<<ADPS1) | (1<<ADIF);
	while ((ADCSRA & (1<<ADSC))); 
	ADCSRA |= (1<<ADIF);
	return ADC;
}
     3de:	c9 01       	movw	r24, r18
     3e0:	08 95       	ret

000003e2 <writeSPI>:
/**
 * Writes a single Databyte to the SPI Interface.
 */
void writeSPI(uint8_t data) 
{     
	SPDR = data;    
     3e2:	8f b9       	out	0x0f, r24	; 15
	while(!(SPSR & (1<<SPIF)));
     3e4:	77 9b       	sbis	0x0e, 7	; 14
     3e6:	fe cf       	rjmp	.-4      	; 0x3e4 <writeSPI+0x2>
}
     3e8:	08 95       	ret

000003ea <readSPI>:
/**
 * Reads a single Databyte from the SPI Interface.
 */
uint8_t readSPI(void)
{
	writeSPI(0xFF);
     3ea:	8f ef       	ldi	r24, 0xFF	; 255
     3ec:	0e 94 f1 01 	call	0x3e2	; 0x3e2 <writeSPI>
	return SPDR;
     3f0:	8f b1       	in	r24, 0x0f	; 15
}
     3f2:	08 95       	ret

000003f4 <readWordSPI>:
/**
 * Reads TWO Bytes from the SPI Interface and returns them as
 * a 16 Bit value with first byte read in the upper 8 bits.
 */
uint16_t readWordSPI(void)
{
     3f4:	ef 92       	push	r14
     3f6:	ff 92       	push	r15
     3f8:	cf 93       	push	r28
     3fa:	df 93       	push	r29
	uint16_t data = 0;
	data = readSPI() << 8;
     3fc:	0e 94 f5 01 	call	0x3ea	; 0x3ea <readSPI>
     400:	98 2f       	mov	r25, r24
     402:	80 e0       	ldi	r24, 0x00	; 0
     404:	ec 01       	movw	r28, r24
	data |= readSPI();
     406:	0e 94 f5 01 	call	0x3ea	; 0x3ea <readSPI>
     40a:	28 2f       	mov	r18, r24
     40c:	30 e0       	ldi	r19, 0x00	; 0
     40e:	2c 2b       	or	r18, r28
     410:	3d 2b       	or	r19, r29
	return data;
}
     412:	c9 01       	movw	r24, r18
     414:	df 91       	pop	r29
     416:	cf 91       	pop	r28
     418:	ff 90       	pop	r15
     41a:	ef 90       	pop	r14
     41c:	08 95       	ret

0000041e <writeWordSPI>:
/**
 * Writes two Bytes contained in the 16 Bit parameter "data".
 * The first byte to be written needs to be in the upper 8 Bits.
 */
void writeWordSPI(uint16_t data)
{
     41e:	1f 93       	push	r17
     420:	18 2f       	mov	r17, r24
	writeSPI((uint8_t)(data >> 8));
     422:	89 2f       	mov	r24, r25
     424:	0e 94 f1 01 	call	0x3e2	; 0x3e2 <writeSPI>
	writeSPI((uint8_t)data);
     428:	81 2f       	mov	r24, r17
     42a:	0e 94 f1 01 	call	0x3e2	; 0x3e2 <writeSPI>
}
     42e:	1f 91       	pop	r17
     430:	08 95       	ret

00000432 <writeBufferSPI>:
 * The numer of bytes in the Buffer that shall be written is given 
 * by the parameter length.
 */
void writeBufferSPI(uint8_t *buffer, uint8_t length)
{
	uint8_t i = 0;
     432:	28 2f       	mov	r18, r24
     434:	39 2f       	mov	r19, r25
     436:	f9 01       	movw	r30, r18
     438:	80 e0       	ldi	r24, 0x00	; 0
	for(; i < length; i++) {
     43a:	05 c0       	rjmp	.+10     	; 0x446 <writeBufferSPI+0x14>
		SPDR = buffer[i];    
     43c:	91 91       	ld	r25, Z+
     43e:	9f b9       	out	0x0f, r25	; 15
		while(!(SPSR & (1<<SPIF)));
     440:	77 9b       	sbis	0x0e, 7	; 14
     442:	fe cf       	rjmp	.-4      	; 0x440 <writeBufferSPI+0xe>
 * by the parameter length.
 */
void writeBufferSPI(uint8_t *buffer, uint8_t length)
{
	uint8_t i = 0;
	for(; i < length; i++) {
     444:	8f 5f       	subi	r24, 0xFF	; 255
     446:	86 17       	cp	r24, r22
     448:	c8 f3       	brcs	.-14     	; 0x43c <writeBufferSPI+0xa>
		SPDR = buffer[i];    
		while(!(SPSR & (1<<SPIF)));
	}
}
     44a:	08 95       	ret

0000044c <readBufferSPI>:
/** 
 * Reads "length" Bytes from SPI Interface into the buffer.
 */
void readBufferSPI(uint8_t *buffer, uint8_t length)
{
	uint8_t i = 0;
     44c:	28 2f       	mov	r18, r24
     44e:	39 2f       	mov	r19, r25
     450:	f9 01       	movw	r30, r18
     452:	80 e0       	ldi	r24, 0x00	; 0
	for(; i < length; i++) {
		SPDR = 0xFF;    
     454:	9f ef       	ldi	r25, 0xFF	; 255
 * Reads "length" Bytes from SPI Interface into the buffer.
 */
void readBufferSPI(uint8_t *buffer, uint8_t length)
{
	uint8_t i = 0;
	for(; i < length; i++) {
     456:	06 c0       	rjmp	.+12     	; 0x464 <readBufferSPI+0x18>
		SPDR = 0xFF;    
     458:	9f b9       	out	0x0f, r25	; 15
		while(!(SPSR & (1<<SPIF)));
     45a:	77 9b       	sbis	0x0e, 7	; 14
     45c:	fe cf       	rjmp	.-4      	; 0x45a <readBufferSPI+0xe>
		buffer[i] = SPDR;
     45e:	2f b1       	in	r18, 0x0f	; 15
     460:	21 93       	st	Z+, r18
 * Reads "length" Bytes from SPI Interface into the buffer.
 */
void readBufferSPI(uint8_t *buffer, uint8_t length)
{
	uint8_t i = 0;
	for(; i < length; i++) {
     462:	8f 5f       	subi	r24, 0xFF	; 255
     464:	86 17       	cp	r24, r22
     466:	c0 f3       	brcs	.-16     	; 0x458 <readBufferSPI+0xc>
		SPDR = 0xFF;    
		while(!(SPSR & (1<<SPIF)));
		buffer[i] = SPDR;
	}
}
     468:	08 95       	ret

0000046a <SPI_EEPROM_readByte>:

/**
 * Reads a single Byte from the external EEPROM.
 */
uint8_t SPI_EEPROM_readByte(uint16_t memAddr)
{
     46a:	cf 93       	push	r28
     46c:	df 93       	push	r29
     46e:	ec 01       	movw	r28, r24
	uint8_t data;
	PORTB &= ~MEM_CS;
     470:	c0 98       	cbi	0x18, 0	; 24
	writeSPI(SPI_EEPROM_READ);
     472:	83 e0       	ldi	r24, 0x03	; 3
     474:	0e 94 f1 01 	call	0x3e2	; 0x3e2 <writeSPI>
	writeWordSPI(memAddr);
     478:	ce 01       	movw	r24, r28
     47a:	0e 94 0f 02 	call	0x41e	; 0x41e <writeWordSPI>
	data = readSPI();
     47e:	0e 94 f5 01 	call	0x3ea	; 0x3ea <readSPI>
	PORTB |= MEM_CS;
     482:	c0 9a       	sbi	0x18, 0	; 24
	return data;
}
     484:	df 91       	pop	r29
     486:	cf 91       	pop	r28
     488:	08 95       	ret

0000048a <SPI_EEPROM_readBytes>:
 * Reads "length" Bytes into the Buffer "buffer" from startAdr on. 
 * You can read the complete EEPROM into a buffer at once - if it is large enough. 
 * (But you only have 2KB SRAM on a MEGA32 ;) )
 */
void SPI_EEPROM_readBytes(uint16_t startAddr, uint8_t *buffer, uint8_t length)
{
     48a:	ef 92       	push	r14
     48c:	ff 92       	push	r15
     48e:	0f 93       	push	r16
     490:	1f 93       	push	r17
     492:	df 93       	push	r29
     494:	cf 93       	push	r28
     496:	0f 92       	push	r0
     498:	cd b7       	in	r28, 0x3d	; 61
     49a:	de b7       	in	r29, 0x3e	; 62
     49c:	7c 01       	movw	r14, r24
     49e:	8b 01       	movw	r16, r22
	PORTB &= ~MEM_CS;
     4a0:	c0 98       	cbi	0x18, 0	; 24
	writeSPI(SPI_EEPROM_READ);
     4a2:	83 e0       	ldi	r24, 0x03	; 3
     4a4:	49 83       	std	Y+1, r20	; 0x01
     4a6:	0e 94 f1 01 	call	0x3e2	; 0x3e2 <writeSPI>
	writeWordSPI(startAddr);
     4aa:	c7 01       	movw	r24, r14
     4ac:	0e 94 0f 02 	call	0x41e	; 0x41e <writeWordSPI>
	readBufferSPI(&buffer[0], length);
     4b0:	c8 01       	movw	r24, r16
     4b2:	49 81       	ldd	r20, Y+1	; 0x01
     4b4:	64 2f       	mov	r22, r20
     4b6:	0e 94 26 02 	call	0x44c	; 0x44c <readBufferSPI>
	PORTB |= MEM_CS;
     4ba:	c0 9a       	sbi	0x18, 0	; 24
}
     4bc:	0f 90       	pop	r0
     4be:	cf 91       	pop	r28
     4c0:	df 91       	pop	r29
     4c2:	1f 91       	pop	r17
     4c4:	0f 91       	pop	r16
     4c6:	ff 90       	pop	r15
     4c8:	ef 90       	pop	r14
     4ca:	08 95       	ret

000004cc <SPI_EEPROM_enableWrite>:
/**
 * Enable Write Mode
 */
void SPI_EEPROM_enableWrite(void)
{
	PORTB &= ~MEM_CS;
     4cc:	c0 98       	cbi	0x18, 0	; 24
	writeSPI(SPI_EEPROM_WREN);
     4ce:	86 e0       	ldi	r24, 0x06	; 6
     4d0:	0e 94 f1 01 	call	0x3e2	; 0x3e2 <writeSPI>
	PORTB |= MEM_CS;
     4d4:	c0 9a       	sbi	0x18, 0	; 24
}
     4d6:	08 95       	ret

000004d8 <SPI_EEPROM_disableWrite>:
/**
 * Disable Write Mode
 */
void SPI_EEPROM_disableWrite(void)
{
	PORTB &= ~MEM_CS;
     4d8:	c0 98       	cbi	0x18, 0	; 24
	writeSPI(SPI_EEPROM_WRDI);
     4da:	84 e0       	ldi	r24, 0x04	; 4
     4dc:	0e 94 f1 01 	call	0x3e2	; 0x3e2 <writeSPI>
	PORTB |= MEM_CS;
     4e0:	c0 9a       	sbi	0x18, 0	; 24
}
     4e2:	08 95       	ret

000004e4 <SPI_EEPROM_getStatus>:
 * Writing takes about 5ms. 
 */
uint8_t SPI_EEPROM_getStatus(void)
{
	uint8_t status;
	PORTB &= ~MEM_CS;
     4e4:	c0 98       	cbi	0x18, 0	; 24
	writeSPI(SPI_EEPROM_RDSR);
     4e6:	85 e0       	ldi	r24, 0x05	; 5
     4e8:	0e 94 f1 01 	call	0x3e2	; 0x3e2 <writeSPI>
	status = readSPI();
     4ec:	0e 94 f5 01 	call	0x3ea	; 0x3ea <readSPI>
	PORTB |= MEM_CS;
     4f0:	c0 9a       	sbi	0x18, 0	; 24
	return status;
}
     4f2:	08 95       	ret

000004f4 <SPI_EEPROM_writeBytes>:
 * instead only up to 63 and then it continues at Byte 0 and writes 
 * the rest up to Byte 10!
 *
 */
void SPI_EEPROM_writeBytes(uint16_t startAddr, uint8_t *buffer, uint8_t length)
{
     4f4:	ff 92       	push	r15
     4f6:	0f 93       	push	r16
     4f8:	1f 93       	push	r17
     4fa:	cf 93       	push	r28
     4fc:	df 93       	push	r29
     4fe:	ec 01       	movw	r28, r24
     500:	8b 01       	movw	r16, r22
     502:	f4 2e       	mov	r15, r20
	while(SPI_EEPROM_getStatus() & SPI_EEPROM_STAT_WIP);
     504:	0e 94 72 02 	call	0x4e4	; 0x4e4 <SPI_EEPROM_getStatus>
     508:	80 fd       	sbrc	r24, 0
     50a:	fc cf       	rjmp	.-8      	; 0x504 <SPI_EEPROM_writeBytes+0x10>
	SPI_EEPROM_enableWrite();
     50c:	0e 94 66 02 	call	0x4cc	; 0x4cc <SPI_EEPROM_enableWrite>
	PORTB &= ~MEM_CS;
     510:	c0 98       	cbi	0x18, 0	; 24
	writeSPI(SPI_EEPROM_WRITE);
     512:	82 e0       	ldi	r24, 0x02	; 2
     514:	0e 94 f1 01 	call	0x3e2	; 0x3e2 <writeSPI>
	writeWordSPI(startAddr);
     518:	ce 01       	movw	r24, r28
     51a:	0e 94 0f 02 	call	0x41e	; 0x41e <writeWordSPI>
	writeBufferSPI(&buffer[0], length);
     51e:	c8 01       	movw	r24, r16
     520:	6f 2d       	mov	r22, r15
     522:	0e 94 19 02 	call	0x432	; 0x432 <writeBufferSPI>
	PORTB |= MEM_CS;
     526:	c0 9a       	sbi	0x18, 0	; 24
}
     528:	df 91       	pop	r29
     52a:	cf 91       	pop	r28
     52c:	1f 91       	pop	r17
     52e:	0f 91       	pop	r16
     530:	ff 90       	pop	r15
     532:	08 95       	ret

00000534 <SPI_EEPROM_writeByte>:

/**
 * Write a single data byte to the specified EEPROM address.
 */
void SPI_EEPROM_writeByte(uint16_t memAddr, uint8_t data)
{
     534:	1f 93       	push	r17
     536:	cf 93       	push	r28
     538:	df 93       	push	r29
     53a:	ec 01       	movw	r28, r24
     53c:	16 2f       	mov	r17, r22
	while(SPI_EEPROM_getStatus() & SPI_EEPROM_STAT_WIP);
     53e:	0e 94 72 02 	call	0x4e4	; 0x4e4 <SPI_EEPROM_getStatus>
     542:	80 fd       	sbrc	r24, 0
     544:	fc cf       	rjmp	.-8      	; 0x53e <SPI_EEPROM_writeByte+0xa>
	SPI_EEPROM_enableWrite();
     546:	0e 94 66 02 	call	0x4cc	; 0x4cc <SPI_EEPROM_enableWrite>
	PORTB &= ~MEM_CS;
     54a:	c0 98       	cbi	0x18, 0	; 24
	writeSPI(SPI_EEPROM_WRITE);
     54c:	82 e0       	ldi	r24, 0x02	; 2
     54e:	0e 94 f1 01 	call	0x3e2	; 0x3e2 <writeSPI>
	writeWordSPI(memAddr);
     552:	ce 01       	movw	r24, r28
     554:	0e 94 0f 02 	call	0x41e	; 0x41e <writeWordSPI>
	writeSPI(data);
     558:	81 2f       	mov	r24, r17
     55a:	0e 94 f1 01 	call	0x3e2	; 0x3e2 <writeSPI>
	PORTB |= MEM_CS;
     55e:	c0 9a       	sbi	0x18, 0	; 24
}
     560:	df 91       	pop	r29
     562:	cf 91       	pop	r28
     564:	1f 91       	pop	r17
     566:	08 95       	ret

00000568 <outputExt>:
 * in 4 or 8bit mode - we use 4bit mode to save portpins) 
 *
 */
void outputExt(void)
{      
  writeSPI(externalPort.byte);   
     568:	80 91 0a 05 	lds	r24, 0x050A
     56c:	0e 94 f1 01 	call	0x3e2	; 0x3e2 <writeSPI>
  PORTD |= STR;
     570:	94 9a       	sbi	0x12, 4	; 18
  nop();
     572:	00 00       	nop
  nop();
     574:	00 00       	nop
  PORTD &= ~STR;        
     576:	94 98       	cbi	0x12, 4	; 18
}
     578:	08 95       	ret

0000057a <setLEDs>:
 * are connected to the LCD! 
 *
 */
void setLEDs(uint8_t leds)
{
	externalPort.LEDS = leds;
     57a:	8f 70       	andi	r24, 0x0F	; 15
     57c:	90 91 0a 05 	lds	r25, 0x050A
     580:	90 7f       	andi	r25, 0xF0	; 240
     582:	98 2b       	or	r25, r24
     584:	90 93 0a 05 	sts	0x050A, r25
	outputExt();
     588:	0e 94 b4 02 	call	0x568	; 0x568 <outputExt>
}
     58c:	08 95       	ret

0000058e <getPressedKeyNumber>:
 * Maybe you need to adjust these values because of variations
 * in the resitors of the keypad!
 *
 */
uint8_t getPressedKeyNumber(void)
{
     58e:	cf 93       	push	r28
     590:	df 93       	push	r29
	uint16_t keys;
	keys = readADC(ADC_KEYPAD);
     592:	81 e0       	ldi	r24, 0x01	; 1
     594:	0e 94 e1 01 	call	0x3c2	; 0x3c2 <readADC>
     598:	ec 01       	movw	r28, r24
	if(keys < 1020) {
     59a:	83 e0       	ldi	r24, 0x03	; 3
     59c:	cc 3f       	cpi	r28, 0xFC	; 252
     59e:	d8 07       	cpc	r29, r24
     5a0:	88 f4       	brcc	.+34     	; 0x5c4 <getPressedKeyNumber+0x36>
		nop();
     5a2:	00 00       	nop
		nop();
     5a4:	00 00       	nop
		nop();
     5a6:	00 00       	nop
		keys += readADC(ADC_KEYPAD);
     5a8:	81 e0       	ldi	r24, 0x01	; 1
     5aa:	0e 94 e1 01 	call	0x3c2	; 0x3c2 <readADC>
     5ae:	c8 0f       	add	r28, r24
     5b0:	d9 1f       	adc	r29, r25
		keys >>= 1;
     5b2:	d6 95       	lsr	r29
     5b4:	c7 95       	ror	r28
	}
	if(keys < 50)
     5b6:	c2 33       	cpi	r28, 0x32	; 50
     5b8:	d1 05       	cpc	r29, r1
     5ba:	90 f0       	brcs	.+36     	; 0x5e0 <getPressedKeyNumber+0x52>
		return 1;
	if(keys < 580)
     5bc:	82 e0       	ldi	r24, 0x02	; 2
     5be:	c4 34       	cpi	r28, 0x44	; 68
     5c0:	d8 07       	cpc	r29, r24
     5c2:	80 f0       	brcs	.+32     	; 0x5e4 <getPressedKeyNumber+0x56>
		return 2;
	if(keys < 700)
     5c4:	82 e0       	ldi	r24, 0x02	; 2
     5c6:	cc 3b       	cpi	r28, 0xBC	; 188
     5c8:	d8 07       	cpc	r29, r24
     5ca:	70 f0       	brcs	.+28     	; 0x5e8 <getPressedKeyNumber+0x5a>
		return 3;
	if(keys < 790)
     5cc:	83 e0       	ldi	r24, 0x03	; 3
     5ce:	c6 31       	cpi	r28, 0x16	; 22
     5d0:	d8 07       	cpc	r29, r24
     5d2:	60 f0       	brcs	.+24     	; 0x5ec <getPressedKeyNumber+0x5e>
		return 4;
	if(keys < 830)
     5d4:	83 e0       	ldi	r24, 0x03	; 3
     5d6:	ce 33       	cpi	r28, 0x3E	; 62
     5d8:	d8 07       	cpc	r29, r24
     5da:	50 f4       	brcc	.+20     	; 0x5f0 <getPressedKeyNumber+0x62>
		return 5;
     5dc:	85 e0       	ldi	r24, 0x05	; 5
     5de:	09 c0       	rjmp	.+18     	; 0x5f2 <getPressedKeyNumber+0x64>
		nop();
		keys += readADC(ADC_KEYPAD);
		keys >>= 1;
	}
	if(keys < 50)
		return 1;
     5e0:	81 e0       	ldi	r24, 0x01	; 1
     5e2:	07 c0       	rjmp	.+14     	; 0x5f2 <getPressedKeyNumber+0x64>
	if(keys < 580)
		return 2;
     5e4:	82 e0       	ldi	r24, 0x02	; 2
     5e6:	05 c0       	rjmp	.+10     	; 0x5f2 <getPressedKeyNumber+0x64>
	if(keys < 700)
		return 3;
     5e8:	83 e0       	ldi	r24, 0x03	; 3
     5ea:	03 c0       	rjmp	.+6      	; 0x5f2 <getPressedKeyNumber+0x64>
	if(keys < 790)
		return 4;
     5ec:	84 e0       	ldi	r24, 0x04	; 4
     5ee:	01 c0       	rjmp	.+2      	; 0x5f2 <getPressedKeyNumber+0x64>
	if(keys < 830)
		return 5;
	return 0;
     5f0:	80 e0       	ldi	r24, 0x00	; 0
}
     5f2:	df 91       	pop	r29
     5f4:	cf 91       	pop	r28
     5f6:	08 95       	ret

000005f8 <checkPressedKeyEvent>:
 * to be released again!
 */
uint8_t checkPressedKeyEvent(void)
{
	static uint8_t pressed_key = 0;
	if(pressed_key) {
     5f8:	80 91 af 00 	lds	r24, 0x00AF
     5fc:	88 23       	and	r24, r24
     5fe:	39 f0       	breq	.+14     	; 0x60e <checkPressedKeyEvent+0x16>
		if(!getPressedKeyNumber()) 
     600:	0e 94 c7 02 	call	0x58e	; 0x58e <getPressedKeyNumber>
     604:	88 23       	and	r24, r24
     606:	41 f4       	brne	.+16     	; 0x618 <checkPressedKeyEvent+0x20>
			pressed_key = 0;
     608:	10 92 af 00 	sts	0x00AF, r1
     60c:	08 95       	ret
	}
	else {
		pressed_key = getPressedKeyNumber();
     60e:	0e 94 c7 02 	call	0x58e	; 0x58e <getPressedKeyNumber>
     612:	80 93 af 00 	sts	0x00AF, r24
     616:	08 95       	ret
		if(pressed_key)
			return pressed_key;
	}
	return 0;
     618:	80 e0       	ldi	r24, 0x00	; 0
}
     61a:	08 95       	ret

0000061c <checkReleasedKeyEvent>:
 * main loop. You don't need something like 
 * "while(getPressedKeyNumber());" to wait for the button
 * to be released again!
 */
uint8_t checkReleasedKeyEvent(void)
{
     61c:	1f 93       	push	r17
	static uint8_t released_key = 0;
	if(released_key) {
     61e:	10 91 ae 00 	lds	r17, 0x00AE
     622:	11 23       	and	r17, r17
     624:	39 f0       	breq	.+14     	; 0x634 <checkReleasedKeyEvent+0x18>
		if(!getPressedKeyNumber()) {
     626:	0e 94 c7 02 	call	0x58e	; 0x58e <getPressedKeyNumber>
     62a:	88 23       	and	r24, r24
     62c:	41 f4       	brne	.+16     	; 0x63e <checkReleasedKeyEvent+0x22>
			uint8_t tmp = released_key;
			released_key = 0;
     62e:	10 92 ae 00 	sts	0x00AE, r1
			return tmp;
     632:	06 c0       	rjmp	.+12     	; 0x640 <checkReleasedKeyEvent+0x24>
		}
	}
	else
		released_key = getPressedKeyNumber();
     634:	0e 94 c7 02 	call	0x58e	; 0x58e <getPressedKeyNumber>
     638:	80 93 ae 00 	sts	0x00AE, r24
     63c:	01 c0       	rjmp	.+2      	; 0x640 <checkReleasedKeyEvent+0x24>
	return 0;
     63e:	10 e0       	ldi	r17, 0x00	; 0
}
     640:	81 2f       	mov	r24, r17
     642:	1f 91       	pop	r17
     644:	08 95       	ret

00000646 <__vector_10>:
 *
 * By default, it runs at 10kHz which means this ISR is called
 * every ~100탎! This is nice for timing stuff!
 */
ISR (TIMER0_COMP_vect)
{
     646:	1f 92       	push	r1
     648:	0f 92       	push	r0
     64a:	0f b6       	in	r0, 0x3f	; 63
     64c:	0f 92       	push	r0
     64e:	11 24       	eor	r1, r1
     650:	8f 93       	push	r24
     652:	9f 93       	push	r25
	// 16bit timer (100탎 resolution)
	timer++;
     654:	80 91 0b 01 	lds	r24, 0x010B
     658:	90 91 0c 01 	lds	r25, 0x010C
     65c:	01 96       	adiw	r24, 0x01	; 1
     65e:	90 93 0c 01 	sts	0x010C, r25
     662:	80 93 0b 01 	sts	0x010B, r24
	
	// Blocking delay (100탎):
	delay_timer++;
     666:	80 91 0b 05 	lds	r24, 0x050B
     66a:	8f 5f       	subi	r24, 0xFF	; 255
     66c:	80 93 0b 05 	sts	0x050B, r24
	
	// All 1ms based timing stuff
	if(ms_timer++ >= 10) { // 10 * 100탎 = 1ms
     670:	80 91 0c 05 	lds	r24, 0x050C
     674:	98 2f       	mov	r25, r24
     676:	9f 5f       	subi	r25, 0xFF	; 255
     678:	90 93 0c 05 	sts	0x050C, r25
     67c:	8a 30       	cpi	r24, 0x0A	; 10
     67e:	08 f4       	brcc	.+2      	; 0x682 <__vector_10+0x3c>
     680:	84 c0       	rjmp	.+264    	; 0x78a <__vector_10+0x144>
		// 16bit Stopwatches:
		if(stopwatches.watches & STOPWATCH1)
     682:	80 91 f9 04 	lds	r24, 0x04F9
     686:	80 ff       	sbrs	r24, 0
     688:	09 c0       	rjmp	.+18     	; 0x69c <__vector_10+0x56>
			stopwatches.watch1++;
     68a:	80 91 fa 04 	lds	r24, 0x04FA
     68e:	90 91 fb 04 	lds	r25, 0x04FB
     692:	01 96       	adiw	r24, 0x01	; 1
     694:	90 93 fb 04 	sts	0x04FB, r25
     698:	80 93 fa 04 	sts	0x04FA, r24
		if(stopwatches.watches & STOPWATCH2)
     69c:	80 91 f9 04 	lds	r24, 0x04F9
     6a0:	81 ff       	sbrs	r24, 1
     6a2:	09 c0       	rjmp	.+18     	; 0x6b6 <__vector_10+0x70>
			stopwatches.watch2++;
     6a4:	80 91 fc 04 	lds	r24, 0x04FC
     6a8:	90 91 fd 04 	lds	r25, 0x04FD
     6ac:	01 96       	adiw	r24, 0x01	; 1
     6ae:	90 93 fd 04 	sts	0x04FD, r25
     6b2:	80 93 fc 04 	sts	0x04FC, r24
		if(stopwatches.watches & STOPWATCH3)
     6b6:	80 91 f9 04 	lds	r24, 0x04F9
     6ba:	82 ff       	sbrs	r24, 2
     6bc:	09 c0       	rjmp	.+18     	; 0x6d0 <__vector_10+0x8a>
			stopwatches.watch3++;
     6be:	80 91 fe 04 	lds	r24, 0x04FE
     6c2:	90 91 ff 04 	lds	r25, 0x04FF
     6c6:	01 96       	adiw	r24, 0x01	; 1
     6c8:	90 93 ff 04 	sts	0x04FF, r25
     6cc:	80 93 fe 04 	sts	0x04FE, r24
		if(stopwatches.watches & STOPWATCH4)
     6d0:	80 91 f9 04 	lds	r24, 0x04F9
     6d4:	83 ff       	sbrs	r24, 3
     6d6:	09 c0       	rjmp	.+18     	; 0x6ea <__vector_10+0xa4>
			stopwatches.watch4++;
     6d8:	80 91 00 05 	lds	r24, 0x0500
     6dc:	90 91 01 05 	lds	r25, 0x0501
     6e0:	01 96       	adiw	r24, 0x01	; 1
     6e2:	90 93 01 05 	sts	0x0501, r25
     6e6:	80 93 00 05 	sts	0x0500, r24
		if(stopwatches.watches & STOPWATCH5)
     6ea:	80 91 f9 04 	lds	r24, 0x04F9
     6ee:	84 ff       	sbrs	r24, 4
     6f0:	09 c0       	rjmp	.+18     	; 0x704 <__vector_10+0xbe>
			stopwatches.watch5++;
     6f2:	80 91 02 05 	lds	r24, 0x0502
     6f6:	90 91 03 05 	lds	r25, 0x0503
     6fa:	01 96       	adiw	r24, 0x01	; 1
     6fc:	90 93 03 05 	sts	0x0503, r25
     700:	80 93 02 05 	sts	0x0502, r24
		if(stopwatches.watches & STOPWATCH6)
     704:	80 91 f9 04 	lds	r24, 0x04F9
     708:	85 ff       	sbrs	r24, 5
     70a:	09 c0       	rjmp	.+18     	; 0x71e <__vector_10+0xd8>
			stopwatches.watch6++;
     70c:	80 91 04 05 	lds	r24, 0x0504
     710:	90 91 05 05 	lds	r25, 0x0505
     714:	01 96       	adiw	r24, 0x01	; 1
     716:	90 93 05 05 	sts	0x0505, r25
     71a:	80 93 04 05 	sts	0x0504, r24
		if(stopwatches.watches & STOPWATCH7)
     71e:	80 91 f9 04 	lds	r24, 0x04F9
     722:	86 ff       	sbrs	r24, 6
     724:	09 c0       	rjmp	.+18     	; 0x738 <__vector_10+0xf2>
			stopwatches.watch7++;
     726:	80 91 06 05 	lds	r24, 0x0506
     72a:	90 91 07 05 	lds	r25, 0x0507
     72e:	01 96       	adiw	r24, 0x01	; 1
     730:	90 93 07 05 	sts	0x0507, r25
     734:	80 93 06 05 	sts	0x0506, r24
		if(stopwatches.watches & STOPWATCH8)
     738:	80 91 f9 04 	lds	r24, 0x04F9
     73c:	87 ff       	sbrs	r24, 7
     73e:	09 c0       	rjmp	.+18     	; 0x752 <__vector_10+0x10c>
			stopwatches.watch8++;
     740:	80 91 08 05 	lds	r24, 0x0508
     744:	90 91 09 05 	lds	r25, 0x0509
     748:	01 96       	adiw	r24, 0x01	; 1
     74a:	90 93 09 05 	sts	0x0509, r25
     74e:	80 93 08 05 	sts	0x0508, r24

		// Sound generation timing:
		if(controlStatus.beep) {
     752:	80 91 e7 04 	lds	r24, 0x04E7
     756:	80 ff       	sbrs	r24, 0
     758:	16 c0       	rjmp	.+44     	; 0x786 <__vector_10+0x140>
			if(sound_timer < 1) { // sound_timer * 1ms
     75a:	80 91 0d 05 	lds	r24, 0x050D
     75e:	90 91 0e 05 	lds	r25, 0x050E
     762:	00 97       	sbiw	r24, 0x00	; 0
     764:	39 f4       	brne	.+14     	; 0x774 <__vector_10+0x12e>
				TCCR2 = 0;
     766:	15 bc       	out	0x25, r1	; 37
				controlStatus.beep = false;
     768:	80 91 e7 04 	lds	r24, 0x04E7
     76c:	8e 7f       	andi	r24, 0xFE	; 254
     76e:	80 93 e7 04 	sts	0x04E7, r24
     772:	09 c0       	rjmp	.+18     	; 0x786 <__vector_10+0x140>
			}
			else
				sound_timer--;
     774:	80 91 0d 05 	lds	r24, 0x050D
     778:	90 91 0e 05 	lds	r25, 0x050E
     77c:	01 97       	sbiw	r24, 0x01	; 1
     77e:	90 93 0e 05 	sts	0x050E, r25
     782:	80 93 0d 05 	sts	0x050D, r24
		}
		
		ms_timer = 0;
     786:	10 92 0c 05 	sts	0x050C, r1
	}
}
     78a:	9f 91       	pop	r25
     78c:	8f 91       	pop	r24
     78e:	0f 90       	pop	r0
     790:	0f be       	out	0x3f, r0	; 63
     792:	0f 90       	pop	r0
     794:	1f 90       	pop	r1
     796:	18 95       	reti

00000798 <beep>:
 * sounds when you need to do other things at the same
 * time... 
 */
void beep(uint8_t pitch, uint16_t time)
{
	controlStatus.beep = true;
     798:	90 91 e7 04 	lds	r25, 0x04E7
     79c:	91 60       	ori	r25, 0x01	; 1
     79e:	90 93 e7 04 	sts	0x04E7, r25
	sound_timer = time;
     7a2:	70 93 0e 05 	sts	0x050E, r23
     7a6:	60 93 0d 05 	sts	0x050D, r22
	OCR2 = 255-pitch;
     7aa:	80 95       	com	r24
     7ac:	83 bd       	out	0x23, r24	; 35
	TCCR2 =  (1 << WGM21) | (1 << COM20) | (1 << CS22) | (1 << CS21);
     7ae:	8e e1       	ldi	r24, 0x1E	; 30
     7b0:	85 bd       	out	0x25, r24	; 37
}
     7b2:	08 95       	ret

000007b4 <setBeeperPitch>:
 * would sound bad if the beeper turns of for a very short time
 * in between - such as alarm tones or special melodies etc. 
 */
void setBeeperPitch(uint8_t pitch)
{
	controlStatus.beep = false;
     7b4:	90 91 e7 04 	lds	r25, 0x04E7
     7b8:	9e 7f       	andi	r25, 0xFE	; 254
     7ba:	90 93 e7 04 	sts	0x04E7, r25
	OCR2 = 255-pitch;
     7be:	98 2f       	mov	r25, r24
     7c0:	90 95       	com	r25
     7c2:	93 bd       	out	0x23, r25	; 35
	if(pitch) 
     7c4:	88 23       	and	r24, r24
     7c6:	19 f0       	breq	.+6      	; 0x7ce <setBeeperPitch+0x1a>
		TCCR2 =  (1 << WGM21) | (1 << COM20) | (1 << CS22) | (1 << CS21);	
     7c8:	8e e1       	ldi	r24, 0x1E	; 30
     7ca:	85 bd       	out	0x25, r24	; 37
     7cc:	08 95       	ret
	else 
		TCCR2 = 0;
     7ce:	15 bc       	out	0x25, r1	; 37
     7d0:	08 95       	ret

000007d2 <sleep>:
 *		// The maximum delay is:
 *		sleep(255); // delay 255 * 100us = 25500us = 25.5ms
 */
void sleep(uint8_t time)
{
	delay_timer = 0;
     7d2:	10 92 0b 05 	sts	0x050B, r1
	while (delay_timer <= time+1);
     7d6:	90 e0       	ldi	r25, 0x00	; 0
     7d8:	01 96       	adiw	r24, 0x01	; 1
     7da:	20 91 0b 05 	lds	r18, 0x050B
     7de:	30 e0       	ldi	r19, 0x00	; 0
     7e0:	82 17       	cp	r24, r18
     7e2:	93 07       	cpc	r25, r19
     7e4:	d4 f7       	brge	.-12     	; 0x7da <sleep+0x8>
}
     7e6:	08 95       	ret

000007e8 <mSleep>:
 *      mSleep(100); // delay 100 * 1ms = 100ms = 0.1s
 *		mSleep(1000); // delay 1000 * 1ms = 1000ms = 1s
 *
 */
void mSleep(uint16_t time)
{
     7e8:	cf 93       	push	r28
     7ea:	df 93       	push	r29
     7ec:	ec 01       	movw	r28, r24
	while (time--) sleep(10);
     7ee:	04 c0       	rjmp	.+8      	; 0x7f8 <mSleep+0x10>
     7f0:	8a e0       	ldi	r24, 0x0A	; 10
     7f2:	0e 94 e9 03 	call	0x7d2	; 0x7d2 <sleep>
     7f6:	21 97       	sbiw	r28, 0x01	; 1
     7f8:	20 97       	sbiw	r28, 0x00	; 0
     7fa:	d1 f7       	brne	.-12     	; 0x7f0 <mSleep+0x8>
}
     7fc:	df 91       	pop	r29
     7fe:	cf 91       	pop	r28
     800:	08 95       	ret

00000802 <dischargePeakDetector>:
 * used for the Microphone. This is required to remove any previous
 * charge from the capacitor. 
 */
void dischargePeakDetector(void)
{
	DDRA |= MIC;
     802:	d0 9a       	sbi	0x1a, 0	; 26
	PORTA &= ~MIC;
     804:	d8 98       	cbi	0x1b, 0	; 27
	mSleep(1);
     806:	81 e0       	ldi	r24, 0x01	; 1
     808:	90 e0       	ldi	r25, 0x00	; 0
     80a:	0e 94 f4 03 	call	0x7e8	; 0x7e8 <mSleep>
	DDRA &= ~MIC;
     80e:	d0 98       	cbi	0x1a, 0	; 26
}
     810:	08 95       	ret

00000812 <getMicrophonePeak>:
/**
 * Reads the Microphone peak detector and discharges it afterwards.
 * 
 */
uint16_t getMicrophonePeak(void)
{
     812:	ef 92       	push	r14
     814:	ff 92       	push	r15
     816:	cf 93       	push	r28
     818:	df 93       	push	r29
	uint16_t tmp;
	tmp = readADC(ADC_MIC);
     81a:	80 e0       	ldi	r24, 0x00	; 0
     81c:	0e 94 e1 01 	call	0x3c2	; 0x3c2 <readADC>
     820:	ec 01       	movw	r28, r24
	if(tmp > 4) 
     822:	85 30       	cpi	r24, 0x05	; 5
     824:	91 05       	cpc	r25, r1
     826:	10 f0       	brcs	.+4      	; 0x82c <getMicrophonePeak+0x1a>
		dischargePeakDetector();
     828:	0e 94 01 04 	call	0x802	; 0x802 <dischargePeakDetector>
	return tmp;
}
     82c:	ce 01       	movw	r24, r28
     82e:	df 91       	pop	r29
     830:	cf 91       	pop	r28
     832:	ff 90       	pop	r15
     834:	ef 90       	pop	r14
     836:	08 95       	ret

00000838 <delayCycles>:
 * Example:
 * 	delayCycles(1000); // Delays for *about* 1000 instruction cycles
 */
void delayCycles(uint16_t dly)
{
	while(dly--) nop();
     838:	02 c0       	rjmp	.+4      	; 0x83e <delayCycles+0x6>
     83a:	00 00       	nop
     83c:	01 97       	sbiw	r24, 0x01	; 1
     83e:	00 97       	sbiw	r24, 0x00	; 0
     840:	e1 f7       	brne	.-8      	; 0x83a <delayCycles+0x2>
}
     842:	08 95       	ret

00000844 <setLCDD>:
 * enable line of the LCD to 'inform' the LCD about the new data.
 *
 */
void setLCDD(uint8_t lcdd)
{
	externalPort.LCDD = lcdd;
     844:	82 95       	swap	r24
     846:	80 7f       	andi	r24, 0xF0	; 240
     848:	90 91 0a 05 	lds	r25, 0x050A
     84c:	9f 70       	andi	r25, 0x0F	; 15
     84e:	98 2b       	or	r25, r24
     850:	90 93 0a 05 	sts	0x050A, r25
	outputExt();
     854:	0e 94 b4 02 	call	0x568	; 0x568 <outputExt>
	PORTB |= LCD_EN;
     858:	c4 9a       	sbi	0x18, 4	; 24
	delayCycles(50);
     85a:	82 e3       	ldi	r24, 0x32	; 50
     85c:	90 e0       	ldi	r25, 0x00	; 0
     85e:	0e 94 1c 04 	call	0x838	; 0x838 <delayCycles>
	PORTB &= ~LCD_EN;
     862:	c4 98       	cbi	0x18, 4	; 24
}
     864:	08 95       	ret

00000866 <write4BitLCDData>:

/**
 * Write a 8bit-byte in two nibbles of 4bit to the LCD.
 */
void write4BitLCDData(uint8_t data)
{
     866:	1f 93       	push	r17
     868:	18 2f       	mov	r17, r24
	setLCDD(data >> 4);
     86a:	82 95       	swap	r24
     86c:	8f 70       	andi	r24, 0x0F	; 15
     86e:	0e 94 22 04 	call	0x844	; 0x844 <setLCDD>
	setLCDD(data);
     872:	81 2f       	mov	r24, r17
     874:	0e 94 22 04 	call	0x844	; 0x844 <setLCDD>
	delayCycles(150);
     878:	86 e9       	ldi	r24, 0x96	; 150
     87a:	90 e0       	ldi	r25, 0x00	; 0
     87c:	0e 94 1c 04 	call	0x838	; 0x838 <delayCycles>
}
     880:	1f 91       	pop	r17
     882:	08 95       	ret

00000884 <writeCharLCD>:
 *			use setCursorPos function to move the cursor to a 
 *			different location!
 */
void writeCharLCD(uint8_t ch)
{
	PORTB |= LCD_RS;
     884:	c3 9a       	sbi	0x18, 3	; 24
	write4BitLCDData(ch);
     886:	0e 94 33 04 	call	0x866	; 0x866 <write4BitLCDData>
	delayCycles(50);
     88a:	82 e3       	ldi	r24, 0x32	; 50
     88c:	90 e0       	ldi	r25, 0x00	; 0
     88e:	0e 94 1c 04 	call	0x838	; 0x838 <delayCycles>
}
     892:	08 95       	ret

00000894 <writeStringLengthLCD>:
 *			// would output: "Robot System"
 *			// No matter if the specified length is 40 characters!
 *
 */
void writeStringLengthLCD(char *string, uint8_t length, uint8_t offset)
{
     894:	0f 93       	push	r16
     896:	1f 93       	push	r17
     898:	df 93       	push	r29
     89a:	cf 93       	push	r28
     89c:	0f 92       	push	r0
     89e:	cd b7       	in	r28, 0x3d	; 61
     8a0:	de b7       	in	r29, 0x3e	; 62
	for(string = &string[offset]; *string && length; length--)
     8a2:	8c 01       	movw	r16, r24
     8a4:	04 0f       	add	r16, r20
     8a6:	11 1d       	adc	r17, r1
     8a8:	05 c0       	rjmp	.+10     	; 0x8b4 <writeStringLengthLCD+0x20>
		writeCharLCD(*string++);
     8aa:	69 83       	std	Y+1, r22	; 0x01
     8ac:	0e 94 42 04 	call	0x884	; 0x884 <writeCharLCD>
 *			// No matter if the specified length is 40 characters!
 *
 */
void writeStringLengthLCD(char *string, uint8_t length, uint8_t offset)
{
	for(string = &string[offset]; *string && length; length--)
     8b0:	69 81       	ldd	r22, Y+1	; 0x01
     8b2:	61 50       	subi	r22, 0x01	; 1
     8b4:	f8 01       	movw	r30, r16
     8b6:	81 91       	ld	r24, Z+
     8b8:	8f 01       	movw	r16, r30
     8ba:	88 23       	and	r24, r24
     8bc:	11 f0       	breq	.+4      	; 0x8c2 <writeStringLengthLCD+0x2e>
     8be:	66 23       	and	r22, r22
     8c0:	a1 f7       	brne	.-24     	; 0x8aa <writeStringLengthLCD+0x16>
		writeCharLCD(*string++);
}
     8c2:	0f 90       	pop	r0
     8c4:	cf 91       	pop	r28
     8c6:	df 91       	pop	r29
     8c8:	1f 91       	pop	r17
     8ca:	0f 91       	pop	r16
     8cc:	08 95       	ret

000008ce <writeStringLCD>:

/**
 * Writes a String from SRAM to the LCD.
 */
void writeStringLCD(char *string)
{
     8ce:	ef 92       	push	r14
     8d0:	ff 92       	push	r15
     8d2:	cf 93       	push	r28
     8d4:	df 93       	push	r29
     8d6:	e8 2e       	mov	r14, r24
     8d8:	e7 01       	movw	r28, r14
     8da:	7e 01       	movw	r14, r28
     8dc:	f9 2e       	mov	r15, r25
     8de:	e7 01       	movw	r28, r14
	while(*string)
     8e0:	02 c0       	rjmp	.+4      	; 0x8e6 <writeStringLCD+0x18>
		writeCharLCD(*string++);
     8e2:	0e 94 42 04 	call	0x884	; 0x884 <writeCharLCD>
/**
 * Writes a String from SRAM to the LCD.
 */
void writeStringLCD(char *string)
{
	while(*string)
     8e6:	89 91       	ld	r24, Y+
     8e8:	88 23       	and	r24, r24
     8ea:	d9 f7       	brne	.-10     	; 0x8e2 <writeStringLCD+0x14>
		writeCharLCD(*string++);
}
     8ec:	df 91       	pop	r29
     8ee:	cf 91       	pop	r28
     8f0:	ff 90       	pop	r15
     8f2:	ef 90       	pop	r14
     8f4:	08 95       	ret

000008f6 <writeIntegerLCD>:
 *			writeInteger(1024,DEC);  	// Decimal
 *			writeInteger(511,OCT);		// Ocal
 *			writeInteger(0b11010111,BIN); // Binary
 */
void writeIntegerLCD(int16_t number, uint8_t base)
{
     8f6:	cf 93       	push	r28
     8f8:	df 93       	push	r29
     8fa:	46 2f       	mov	r20, r22
	itoa(number, &lcd_tmp_buffer[0], base);
     8fc:	c8 ee       	ldi	r28, 0xE8	; 232
     8fe:	d4 e0       	ldi	r29, 0x04	; 4
     900:	be 01       	movw	r22, r28
     902:	50 e0       	ldi	r21, 0x00	; 0
     904:	0e 94 a6 1a 	call	0x354c	; 0x354c <itoa>
	writeStringLCD(&lcd_tmp_buffer[0]);
     908:	ce 01       	movw	r24, r28
     90a:	0e 94 67 04 	call	0x8ce	; 0x8ce <writeStringLCD>
}
     90e:	df 91       	pop	r29
     910:	cf 91       	pop	r28
     912:	08 95       	ret

00000914 <writeIntegerLengthLCD>:
 *			writeIntegerLength(511,OCT,4);		// Ocal
 *			writeIntegerLength(0b11010111,BIN,8); // Binary
 */
 
void writeIntegerLengthLCD(int16_t number, uint8_t base, uint8_t length)
{
     914:	ef 92       	push	r14
     916:	ff 92       	push	r15
     918:	0f 93       	push	r16
     91a:	1f 93       	push	r17
     91c:	df 93       	push	r29
     91e:	cf 93       	push	r28
     920:	cd b7       	in	r28, 0x3d	; 61
     922:	de b7       	in	r29, 0x3e	; 62
     924:	61 97       	sbiw	r28, 0x11	; 17
     926:	0f b6       	in	r0, 0x3f	; 63
     928:	f8 94       	cli
     92a:	de bf       	out	0x3e, r29	; 62
     92c:	0f be       	out	0x3f, r0	; 63
     92e:	cd bf       	out	0x3d, r28	; 61
     930:	26 2f       	mov	r18, r22
     932:	f4 2e       	mov	r15, r20
	char buffer[17];
	itoa(number, &buffer[0], base);
     934:	8e 01       	movw	r16, r28
     936:	0f 5f       	subi	r16, 0xFF	; 255
     938:	1f 4f       	sbci	r17, 0xFF	; 255
     93a:	b8 01       	movw	r22, r16
     93c:	42 2f       	mov	r20, r18
     93e:	50 e0       	ldi	r21, 0x00	; 0
     940:	0e 94 a6 1a 	call	0x354c	; 0x354c <itoa>
	int8_t cnt = length - strlen(buffer);
     944:	f8 01       	movw	r30, r16
     946:	01 90       	ld	r0, Z+
     948:	00 20       	and	r0, r0
     94a:	e9 f7       	brne	.-6      	; 0x946 <writeIntegerLengthLCD+0x32>
     94c:	31 97       	sbiw	r30, 0x01	; 1
     94e:	e0 1b       	sub	r30, r16
     950:	f1 0b       	sbc	r31, r17
     952:	4f 2d       	mov	r20, r15
     954:	4e 1b       	sub	r20, r30
     956:	e4 2e       	mov	r14, r20
	if(cnt > 0) {
     958:	14 16       	cp	r1, r20
     95a:	5c f4       	brge	.+22     	; 0x972 <writeIntegerLengthLCD+0x5e>
		for(; cnt > 0; cnt--, writeCharLCD('0'));
     95c:	ea 94       	dec	r14
     95e:	80 e3       	ldi	r24, 0x30	; 48
     960:	0e 94 42 04 	call	0x884	; 0x884 <writeCharLCD>
     964:	1e 14       	cp	r1, r14
     966:	d4 f3       	brlt	.-12     	; 0x95c <writeIntegerLengthLCD+0x48>
		writeStringLCD(&buffer[0]);
     968:	ce 01       	movw	r24, r28
     96a:	01 96       	adiw	r24, 0x01	; 1
     96c:	0e 94 67 04 	call	0x8ce	; 0x8ce <writeStringLCD>
     970:	05 c0       	rjmp	.+10     	; 0x97c <writeIntegerLengthLCD+0x68>
	}
	else 
		writeStringLengthLCD(&buffer[0],length,-cnt);
     972:	41 95       	neg	r20
     974:	c8 01       	movw	r24, r16
     976:	6f 2d       	mov	r22, r15
     978:	0e 94 4a 04 	call	0x894	; 0x894 <writeStringLengthLCD>
}
     97c:	61 96       	adiw	r28, 0x11	; 17
     97e:	0f b6       	in	r0, 0x3f	; 63
     980:	f8 94       	cli
     982:	de bf       	out	0x3e, r29	; 62
     984:	0f be       	out	0x3f, r0	; 63
     986:	cd bf       	out	0x3d, r28	; 61
     988:	cf 91       	pop	r28
     98a:	df 91       	pop	r29
     98c:	1f 91       	pop	r17
     98e:	0f 91       	pop	r16
     990:	ff 90       	pop	r15
     992:	ef 90       	pop	r14
     994:	08 95       	ret

00000996 <writeNStringLCD_P>:
 *			// you can simply write:
 *			writeStringLCD_P("RP6 Control");
 *
 */
void writeNStringLCD_P(const char *pstring)
{
     996:	cf 93       	push	r28
     998:	df 93       	push	r29
     99a:	ec 01       	movw	r28, r24
    uint8_t c;
    for (;(c = pgm_read_byte_near(pstring++));writeCharLCD(c));
     99c:	02 c0       	rjmp	.+4      	; 0x9a2 <writeNStringLCD_P+0xc>
     99e:	0e 94 42 04 	call	0x884	; 0x884 <writeCharLCD>
     9a2:	fe 01       	movw	r30, r28
     9a4:	21 96       	adiw	r28, 0x01	; 1
     9a6:	84 91       	lpm	r24, Z+
     9a8:	88 23       	and	r24, r24
     9aa:	c9 f7       	brne	.-14     	; 0x99e <writeNStringLCD_P+0x8>
}
     9ac:	df 91       	pop	r29
     9ae:	cf 91       	pop	r28
     9b0:	08 95       	ret

000009b2 <writeLCDCommand>:
/**
 * Write a command to the LCD.
 */
void writeLCDCommand(uint8_t cmd)
{
	PORTB &= ~LCD_RS;
     9b2:	c3 98       	cbi	0x18, 3	; 24
	write4BitLCDData(cmd);
     9b4:	0e 94 33 04 	call	0x866	; 0x866 <write4BitLCDData>
	delayCycles(150);
     9b8:	86 e9       	ldi	r24, 0x96	; 150
     9ba:	90 e0       	ldi	r25, 0x00	; 0
     9bc:	0e 94 1c 04 	call	0x838	; 0x838 <delayCycles>
}
     9c0:	08 95       	ret

000009c2 <setCursorPosLCD>:
/**
 * Sets the cursor position on LCD.
 */
void setCursorPosLCD(uint8_t line, uint8_t pos)
{
	pos |= 128;
     9c2:	60 68       	ori	r22, 0x80	; 128
	if(line==1) pos += 0x40;
     9c4:	81 30       	cpi	r24, 0x01	; 1
     9c6:	09 f4       	brne	.+2      	; 0x9ca <setCursorPosLCD+0x8>
     9c8:	60 5c       	subi	r22, 0xC0	; 192
	writeLCDCommand(pos);
     9ca:	86 2f       	mov	r24, r22
     9cc:	0e 94 d9 04 	call	0x9b2	; 0x9b2 <writeLCDCommand>
}
     9d0:	08 95       	ret

000009d2 <clearPosLCD>:

/**
 * Clears some characters after the given position.
 */
void clearPosLCD(uint8_t line, uint8_t pos, uint8_t length)
{
     9d2:	1f 93       	push	r17
     9d4:	14 2f       	mov	r17, r20
	setCursorPosLCD(line,pos);
     9d6:	0e 94 e1 04 	call	0x9c2	; 0x9c2 <setCursorPosLCD>
	while(length--)
     9da:	04 c0       	rjmp	.+8      	; 0x9e4 <clearPosLCD+0x12>
		writeCharLCD(' ');
     9dc:	80 e2       	ldi	r24, 0x20	; 32
     9de:	0e 94 42 04 	call	0x884	; 0x884 <writeCharLCD>
     9e2:	11 50       	subi	r17, 0x01	; 1
 * Clears some characters after the given position.
 */
void clearPosLCD(uint8_t line, uint8_t pos, uint8_t length)
{
	setCursorPosLCD(line,pos);
	while(length--)
     9e4:	11 23       	and	r17, r17
     9e6:	d1 f7       	brne	.-12     	; 0x9dc <clearPosLCD+0xa>
		writeCharLCD(' ');
}
     9e8:	1f 91       	pop	r17
     9ea:	08 95       	ret

000009ec <clearLCD>:
/**
 * Clears the whole LCD!
 */
void clearLCD(void)
{
	writeLCDCommand(0b00000001);
     9ec:	81 e0       	ldi	r24, 0x01	; 1
     9ee:	0e 94 d9 04 	call	0x9b2	; 0x9b2 <writeLCDCommand>
	delayCycles(5500);
     9f2:	8c e7       	ldi	r24, 0x7C	; 124
     9f4:	95 e1       	ldi	r25, 0x15	; 21
     9f6:	0e 94 1c 04 	call	0x838	; 0x838 <delayCycles>
}
     9fa:	08 95       	ret

000009fc <_showScreenLCD_P>:
 * This function is useful for displaying text screens on the LCD.
 * It clears the whole LCD and writes the two Strings to line 1 and
 * line 2.
 */
void _showScreenLCD_P(const char *line1, const char *line2)
{
     9fc:	0f 93       	push	r16
     9fe:	1f 93       	push	r17
     a00:	cf 93       	push	r28
     a02:	df 93       	push	r29
     a04:	8c 01       	movw	r16, r24
     a06:	eb 01       	movw	r28, r22
	clearLCD();
     a08:	0e 94 f6 04 	call	0x9ec	; 0x9ec <clearLCD>
	writeNStringLCD_P(line1);
     a0c:	c8 01       	movw	r24, r16
     a0e:	0e 94 cb 04 	call	0x996	; 0x996 <writeNStringLCD_P>
	setCursorPosLCD(1, 0);
     a12:	81 e0       	ldi	r24, 0x01	; 1
     a14:	60 e0       	ldi	r22, 0x00	; 0
     a16:	0e 94 e1 04 	call	0x9c2	; 0x9c2 <setCursorPosLCD>
	writeNStringLCD_P(line2);
     a1a:	ce 01       	movw	r24, r28
     a1c:	0e 94 cb 04 	call	0x996	; 0x996 <writeNStringLCD_P>
}
     a20:	df 91       	pop	r29
     a22:	cf 91       	pop	r28
     a24:	1f 91       	pop	r17
     a26:	0f 91       	pop	r16
     a28:	08 95       	ret

00000a2a <initLCD>:
 */
void initLCD(void)
{
	//delayCycles(34000); No need for Power ON delay as usually the
	// Bootloader should have been executed before...
	setLCDD(0b0011);
     a2a:	83 e0       	ldi	r24, 0x03	; 3
     a2c:	0e 94 22 04 	call	0x844	; 0x844 <setLCDD>
	delayCycles(18000);
     a30:	80 e5       	ldi	r24, 0x50	; 80
     a32:	96 e4       	ldi	r25, 0x46	; 70
     a34:	0e 94 1c 04 	call	0x838	; 0x838 <delayCycles>
	setLCDD(0b0011);
     a38:	83 e0       	ldi	r24, 0x03	; 3
     a3a:	0e 94 22 04 	call	0x844	; 0x844 <setLCDD>
	delayCycles(5500);
     a3e:	8c e7       	ldi	r24, 0x7C	; 124
     a40:	95 e1       	ldi	r25, 0x15	; 21
     a42:	0e 94 1c 04 	call	0x838	; 0x838 <delayCycles>
	setLCDD(0b0011);
     a46:	83 e0       	ldi	r24, 0x03	; 3
     a48:	0e 94 22 04 	call	0x844	; 0x844 <setLCDD>
	delayCycles(5500);
     a4c:	8c e7       	ldi	r24, 0x7C	; 124
     a4e:	95 e1       	ldi	r25, 0x15	; 21
     a50:	0e 94 1c 04 	call	0x838	; 0x838 <delayCycles>
	setLCDD(0b0010);
     a54:	82 e0       	ldi	r24, 0x02	; 2
     a56:	0e 94 22 04 	call	0x844	; 0x844 <setLCDD>
	delayCycles(5500);
     a5a:	8c e7       	ldi	r24, 0x7C	; 124
     a5c:	95 e1       	ldi	r25, 0x15	; 21
     a5e:	0e 94 1c 04 	call	0x838	; 0x838 <delayCycles>
	writeLCDCommand(0b00101000);
     a62:	88 e2       	ldi	r24, 0x28	; 40
     a64:	0e 94 d9 04 	call	0x9b2	; 0x9b2 <writeLCDCommand>
	delayCycles(5500);
     a68:	8c e7       	ldi	r24, 0x7C	; 124
     a6a:	95 e1       	ldi	r25, 0x15	; 21
     a6c:	0e 94 1c 04 	call	0x838	; 0x838 <delayCycles>
	writeLCDCommand(0b00001000);
     a70:	88 e0       	ldi	r24, 0x08	; 8
     a72:	0e 94 d9 04 	call	0x9b2	; 0x9b2 <writeLCDCommand>
	delayCycles(5500);
     a76:	8c e7       	ldi	r24, 0x7C	; 124
     a78:	95 e1       	ldi	r25, 0x15	; 21
     a7a:	0e 94 1c 04 	call	0x838	; 0x838 <delayCycles>
	writeLCDCommand(0b00000001);
     a7e:	81 e0       	ldi	r24, 0x01	; 1
     a80:	0e 94 d9 04 	call	0x9b2	; 0x9b2 <writeLCDCommand>
	delayCycles(5500);
     a84:	8c e7       	ldi	r24, 0x7C	; 124
     a86:	95 e1       	ldi	r25, 0x15	; 21
     a88:	0e 94 1c 04 	call	0x838	; 0x838 <delayCycles>
	writeLCDCommand(0b00000010);
     a8c:	82 e0       	ldi	r24, 0x02	; 2
     a8e:	0e 94 d9 04 	call	0x9b2	; 0x9b2 <writeLCDCommand>
	delayCycles(5500);
     a92:	8c e7       	ldi	r24, 0x7C	; 124
     a94:	95 e1       	ldi	r25, 0x15	; 21
     a96:	0e 94 1c 04 	call	0x838	; 0x838 <delayCycles>
	writeLCDCommand(0b00001100);
     a9a:	8c e0       	ldi	r24, 0x0C	; 12
     a9c:	0e 94 d9 04 	call	0x9b2	; 0x9b2 <writeLCDCommand>
	delayCycles(5500);
     aa0:	8c e7       	ldi	r24, 0x7C	; 124
     aa2:	95 e1       	ldi	r25, 0x15	; 21
     aa4:	0e 94 1c 04 	call	0x838	; 0x838 <delayCycles>
}
     aa8:	08 95       	ret

00000aaa <initRP6Control>:
 *			}
 *
 */
void initRP6Control(void)
{
	portInit();		// Setup port directions and initial values.
     aaa:	1b ba       	out	0x1b, r1	; 27
     aac:	87 e0       	ldi	r24, 0x07	; 7
     aae:	88 bb       	out	0x18, r24	; 24
     ab0:	8c ef       	ldi	r24, 0xFC	; 252
     ab2:	85 bb       	out	0x15, r24	; 21
     ab4:	81 e6       	ldi	r24, 0x61	; 97
     ab6:	82 bb       	out	0x12, r24	; 18
     ab8:	1a ba       	out	0x1a, r1	; 26
     aba:	8b eb       	ldi	r24, 0xBB	; 187
     abc:	87 bb       	out	0x17, r24	; 23
     abe:	14 ba       	out	0x14, r1	; 20
     ac0:	82 e9       	ldi	r24, 0x92	; 146
     ac2:	81 bb       	out	0x11, r24	; 17
					// This is the most important step!

	cli();			// Disable global interrupts.
     ac4:	f8 94       	cli

	// UART:
	UBRRH = UBRR_BAUD_LOW >> 8;	// Setup UART: Baud is Low Speed
     ac6:	10 bc       	out	0x20, r1	; 32
	UBRRL = (uint8_t) UBRR_BAUD_LOW;
     ac8:	89 e1       	ldi	r24, 0x19	; 25
     aca:	89 b9       	out	0x09, r24	; 9
	UCSRA = 0x00;
     acc:	1b b8       	out	0x0b, r1	; 11
    UCSRC = (1<<URSEL)|(1<<UCSZ1)|(1<<UCSZ0);
     ace:	86 e8       	ldi	r24, 0x86	; 134
     ad0:	80 bd       	out	0x20, r24	; 32
    UCSRB = (1 << TXEN) | (1 << RXEN) | (1 << RXCIE);
     ad2:	88 e9       	ldi	r24, 0x98	; 152
     ad4:	8a b9       	out	0x0a, r24	; 10
	
	// Initialize ADC:
	ADMUX = 0; //external reference 
     ad6:	17 b8       	out	0x07, r1	; 7
	ADCSRA = (0<<ADIE) | (0<<ADEN) | (1<<ADPS2) | (1<<ADPS1) | (1<<ADIF);
     ad8:	86 e1       	ldi	r24, 0x16	; 22
     ada:	86 b9       	out	0x06, r24	; 6
	SFIOR = 0;
     adc:	10 be       	out	0x30, r1	; 48

	// Initialize External interrupts - all disabled:
	MCUCR = (1 << ISC11) | (1 << ISC10) | (1 << ISC01) | (1 << ISC00);
     ade:	8f e0       	ldi	r24, 0x0F	; 15
     ae0:	85 bf       	out	0x35, r24	; 53
	GICR = (0 << INT2) | (0 << INT1) | (0 << INT0);
     ae2:	1b be       	out	0x3b, r1	; 59
	MCUCSR = (0 << ISC2);
     ae4:	14 be       	out	0x34, r1	; 52
	
	
	// 10kHz Timer 0:
	TCCR0 =   (0 << WGM00) 
     ae6:	8a e0       	ldi	r24, 0x0A	; 10
     ae8:	83 bf       	out	0x33, r24	; 51
			| (0 << COM00) 
			| (0 << COM01) 
			| (0 << CS02)  
			| (1 << CS01) 
			| (0 << CS00);
	OCR0  = 199;
     aea:	87 ec       	ldi	r24, 0xC7	; 199
     aec:	8c bf       	out	0x3c, r24	; 60
/*
	Timer 1 is free for your application!
*/

	// Timer 2 - used for beeper:
	TCCR2 =  0; 
     aee:	15 bc       	out	0x25, r1	; 37
	OCR2  = 0xFF; 
     af0:	8f ef       	ldi	r24, 0xFF	; 255
     af2:	83 bd       	out	0x23, r24	; 35

	// Enable timer interrupts:
	TIMSK =   (1 << OCIE0); 
     af4:	82 e0       	ldi	r24, 0x02	; 2
     af6:	89 bf       	out	0x39, r24	; 57

	// SPI Master (SPI Mode 0, SCK Frequency is F_CPU/2, which means it is 8MHz 
	// on the RP6 CONTROL M32...):
	SPCR =    (0<<SPIE) 
     af8:	80 e5       	ldi	r24, 0x50	; 80
     afa:	8d b9       	out	0x0d, r24	; 13
			| (1<<MSTR) 
			| (0<<SPR0) 
			| (0<<SPR1) 
			| (0<<CPOL) 
			| (0<<CPHA);  
	SPSR = (1<<SPI2X);
     afc:	81 e0       	ldi	r24, 0x01	; 1
     afe:	8e b9       	out	0x0e, r24	; 14
	
	sei(); // Enable Global Interrupts
     b00:	78 94       	sei
}
     b02:	08 95       	ret

00000b04 <writeChar>:
 *			00123
 *
 */
void writeChar(char ch)
{
    while (!(UCSRA & (1<<UDRE)));
     b04:	5d 9b       	sbis	0x0b, 5	; 11
     b06:	fe cf       	rjmp	.-4      	; 0xb04 <writeChar>
    UDR = (uint8_t)ch;
     b08:	8c b9       	out	0x0c, r24	; 12
}
     b0a:	08 95       	ret

00000b0c <writeString>:
 *
 *			writeString("RP6 Robot System\n");
 *
 */
void writeString(char *string)
{
     b0c:	ef 92       	push	r14
     b0e:	ff 92       	push	r15
     b10:	cf 93       	push	r28
     b12:	df 93       	push	r29
     b14:	e8 2e       	mov	r14, r24
     b16:	e7 01       	movw	r28, r14
     b18:	7e 01       	movw	r14, r28
     b1a:	f9 2e       	mov	r15, r25
     b1c:	e7 01       	movw	r28, r14
	while(*string)
     b1e:	02 c0       	rjmp	.+4      	; 0xb24 <writeString+0x18>
		writeChar(*string++);
     b20:	0e 94 82 05 	call	0xb04	; 0xb04 <writeChar>
 *			writeString("RP6 Robot System\n");
 *
 */
void writeString(char *string)
{
	while(*string)
     b24:	89 91       	ld	r24, Y+
     b26:	88 23       	and	r24, r24
     b28:	d9 f7       	brne	.-10     	; 0xb20 <writeString+0x14>
		writeChar(*string++);
}
     b2a:	df 91       	pop	r29
     b2c:	cf 91       	pop	r28
     b2e:	ff 90       	pop	r15
     b30:	ef 90       	pop	r14
     b32:	08 95       	ret

00000b34 <writeNStringP>:
 *			// you can simply write:
 *			writeString_P("RP6 Robot System\n");
 *
 */
void writeNStringP(const char *pstring)
{
     b34:	cf 93       	push	r28
     b36:	df 93       	push	r29
     b38:	ec 01       	movw	r28, r24
    uint8_t c;
    for (;(c = pgm_read_byte_near(pstring++));writeChar(c));
     b3a:	02 c0       	rjmp	.+4      	; 0xb40 <writeNStringP+0xc>
     b3c:	0e 94 82 05 	call	0xb04	; 0xb04 <writeChar>
     b40:	fe 01       	movw	r30, r28
     b42:	21 96       	adiw	r28, 0x01	; 1
     b44:	84 91       	lpm	r24, Z+
     b46:	88 23       	and	r24, r24
     b48:	c9 f7       	brne	.-14     	; 0xb3c <writeNStringP+0x8>
}
     b4a:	df 91       	pop	r29
     b4c:	cf 91       	pop	r28
     b4e:	08 95       	ret

00000b50 <writeStringLength>:
 *			// would output: "Robot System\n"
 *			// No matter if the specified length is 40 characters!
 *
 */
void writeStringLength(char *string, uint8_t length, uint8_t offset)
{
     b50:	0f 93       	push	r16
     b52:	1f 93       	push	r17
     b54:	df 93       	push	r29
     b56:	cf 93       	push	r28
     b58:	0f 92       	push	r0
     b5a:	cd b7       	in	r28, 0x3d	; 61
     b5c:	de b7       	in	r29, 0x3e	; 62
	for(string = &string[offset]; *string && length; length--)
     b5e:	8c 01       	movw	r16, r24
     b60:	04 0f       	add	r16, r20
     b62:	11 1d       	adc	r17, r1
     b64:	05 c0       	rjmp	.+10     	; 0xb70 <writeStringLength+0x20>
		writeChar(*string++);
     b66:	69 83       	std	Y+1, r22	; 0x01
     b68:	0e 94 82 05 	call	0xb04	; 0xb04 <writeChar>
 *			// No matter if the specified length is 40 characters!
 *
 */
void writeStringLength(char *string, uint8_t length, uint8_t offset)
{
	for(string = &string[offset]; *string && length; length--)
     b6c:	69 81       	ldd	r22, Y+1	; 0x01
     b6e:	61 50       	subi	r22, 0x01	; 1
     b70:	f8 01       	movw	r30, r16
     b72:	81 91       	ld	r24, Z+
     b74:	8f 01       	movw	r16, r30
     b76:	88 23       	and	r24, r24
     b78:	11 f0       	breq	.+4      	; 0xb7e <writeStringLength+0x2e>
     b7a:	66 23       	and	r22, r22
     b7c:	a1 f7       	brne	.-24     	; 0xb66 <writeStringLength+0x16>
		writeChar(*string++);
}
     b7e:	0f 90       	pop	r0
     b80:	cf 91       	pop	r28
     b82:	df 91       	pop	r29
     b84:	1f 91       	pop	r17
     b86:	0f 91       	pop	r16
     b88:	08 95       	ret

00000b8a <writeInteger>:
 *			writeInteger(1024,DEC);  	// Decimal
 *			writeInteger(044,OCT);		// Ocal
 *			writeInteger(0b11010111,BIN); // Binary
 */
void writeInteger(int16_t number, uint8_t base)
{
     b8a:	0f 93       	push	r16
     b8c:	1f 93       	push	r17
     b8e:	df 93       	push	r29
     b90:	cf 93       	push	r28
     b92:	cd b7       	in	r28, 0x3d	; 61
     b94:	de b7       	in	r29, 0x3e	; 62
     b96:	61 97       	sbiw	r28, 0x11	; 17
     b98:	0f b6       	in	r0, 0x3f	; 63
     b9a:	f8 94       	cli
     b9c:	de bf       	out	0x3e, r29	; 62
     b9e:	0f be       	out	0x3f, r0	; 63
     ba0:	cd bf       	out	0x3d, r28	; 61
     ba2:	46 2f       	mov	r20, r22
	char buffer[17];
	itoa(number, &buffer[0], base);
     ba4:	8e 01       	movw	r16, r28
     ba6:	0f 5f       	subi	r16, 0xFF	; 255
     ba8:	1f 4f       	sbci	r17, 0xFF	; 255
     baa:	b8 01       	movw	r22, r16
     bac:	50 e0       	ldi	r21, 0x00	; 0
     bae:	0e 94 a6 1a 	call	0x354c	; 0x354c <itoa>
	writeString(&buffer[0]);
     bb2:	c8 01       	movw	r24, r16
     bb4:	0e 94 86 05 	call	0xb0c	; 0xb0c <writeString>
}
     bb8:	61 96       	adiw	r28, 0x11	; 17
     bba:	0f b6       	in	r0, 0x3f	; 63
     bbc:	f8 94       	cli
     bbe:	de bf       	out	0x3e, r29	; 62
     bc0:	0f be       	out	0x3f, r0	; 63
     bc2:	cd bf       	out	0x3d, r28	; 61
     bc4:	cf 91       	pop	r28
     bc6:	df 91       	pop	r29
     bc8:	1f 91       	pop	r17
     bca:	0f 91       	pop	r16
     bcc:	08 95       	ret

00000bce <writeIntegerLength>:
 *			writeIntegerLength(1024,DEC,6);  	// Decimal
 *			writeIntegerLength(044,OCT,4);		// Ocal
 *			writeIntegerLength(0b11010111,BIN,8); // Binary
 */
void writeIntegerLength(int16_t number, uint8_t base, uint8_t length)
{
     bce:	ef 92       	push	r14
     bd0:	ff 92       	push	r15
     bd2:	0f 93       	push	r16
     bd4:	1f 93       	push	r17
     bd6:	df 93       	push	r29
     bd8:	cf 93       	push	r28
     bda:	cd b7       	in	r28, 0x3d	; 61
     bdc:	de b7       	in	r29, 0x3e	; 62
     bde:	61 97       	sbiw	r28, 0x11	; 17
     be0:	0f b6       	in	r0, 0x3f	; 63
     be2:	f8 94       	cli
     be4:	de bf       	out	0x3e, r29	; 62
     be6:	0f be       	out	0x3f, r0	; 63
     be8:	cd bf       	out	0x3d, r28	; 61
     bea:	26 2f       	mov	r18, r22
     bec:	f4 2e       	mov	r15, r20
	char buffer[17];
	itoa(number, &buffer[0], base);
     bee:	8e 01       	movw	r16, r28
     bf0:	0f 5f       	subi	r16, 0xFF	; 255
     bf2:	1f 4f       	sbci	r17, 0xFF	; 255
     bf4:	b8 01       	movw	r22, r16
     bf6:	42 2f       	mov	r20, r18
     bf8:	50 e0       	ldi	r21, 0x00	; 0
     bfa:	0e 94 a6 1a 	call	0x354c	; 0x354c <itoa>
	int8_t cnt = length - strlen(buffer);
     bfe:	f8 01       	movw	r30, r16
     c00:	01 90       	ld	r0, Z+
     c02:	00 20       	and	r0, r0
     c04:	e9 f7       	brne	.-6      	; 0xc00 <writeIntegerLength+0x32>
     c06:	31 97       	sbiw	r30, 0x01	; 1
     c08:	e0 1b       	sub	r30, r16
     c0a:	f1 0b       	sbc	r31, r17
     c0c:	4f 2d       	mov	r20, r15
     c0e:	4e 1b       	sub	r20, r30
     c10:	e4 2e       	mov	r14, r20
	if(cnt > 0) {
     c12:	14 16       	cp	r1, r20
     c14:	5c f4       	brge	.+22     	; 0xc2c <writeIntegerLength+0x5e>
		for(; cnt > 0; cnt--, writeChar('0'));
     c16:	ea 94       	dec	r14
     c18:	80 e3       	ldi	r24, 0x30	; 48
     c1a:	0e 94 82 05 	call	0xb04	; 0xb04 <writeChar>
     c1e:	1e 14       	cp	r1, r14
     c20:	d4 f3       	brlt	.-12     	; 0xc16 <writeIntegerLength+0x48>
		writeString(&buffer[0]);
     c22:	ce 01       	movw	r24, r28
     c24:	01 96       	adiw	r24, 0x01	; 1
     c26:	0e 94 86 05 	call	0xb0c	; 0xb0c <writeString>
     c2a:	05 c0       	rjmp	.+10     	; 0xc36 <writeIntegerLength+0x68>
	}
	else 
		writeStringLength(&buffer[0],length,-cnt);
     c2c:	41 95       	neg	r20
     c2e:	c8 01       	movw	r24, r16
     c30:	6f 2d       	mov	r22, r15
     c32:	0e 94 a8 05 	call	0xb50	; 0xb50 <writeStringLength>
}
     c36:	61 96       	adiw	r28, 0x11	; 17
     c38:	0f b6       	in	r0, 0x3f	; 63
     c3a:	f8 94       	cli
     c3c:	de bf       	out	0x3e, r29	; 62
     c3e:	0f be       	out	0x3f, r0	; 63
     c40:	cd bf       	out	0x3d, r28	; 61
     c42:	cf 91       	pop	r28
     c44:	df 91       	pop	r29
     c46:	1f 91       	pop	r17
     c48:	0f 91       	pop	r16
     c4a:	ff 90       	pop	r15
     c4c:	ef 90       	pop	r14
     c4e:	08 95       	ret

00000c50 <__vector_13>:
/**
 * UART receive ISR.
 * Handles reception to circular buffer.
 */
ISR(USART_RXC_vect)
{	
     c50:	1f 92       	push	r1
     c52:	0f 92       	push	r0
     c54:	0f b6       	in	r0, 0x3f	; 63
     c56:	0f 92       	push	r0
     c58:	11 24       	eor	r1, r1
     c5a:	2f 93       	push	r18
     c5c:	8f 93       	push	r24
     c5e:	9f 93       	push	r25
     c60:	ef 93       	push	r30
     c62:	ff 93       	push	r31
	static volatile uint8_t dummy;
	if(((uint8_t)(write_size - read_size)) < UART_RECEIVE_BUFFER_SIZE) {
     c64:	90 91 b3 00 	lds	r25, 0x00B3
     c68:	80 91 b2 00 	lds	r24, 0x00B2
     c6c:	29 2f       	mov	r18, r25
     c6e:	28 1b       	sub	r18, r24
     c70:	20 32       	cpi	r18, 0x20	; 32
     c72:	a8 f4       	brcc	.+42     	; 0xc9e <__vector_13+0x4e>
		uart_receive_buffer[write_pos++] = UDR;
     c74:	80 91 b1 00 	lds	r24, 0x00B1
     c78:	e8 2f       	mov	r30, r24
     c7a:	f0 e0       	ldi	r31, 0x00	; 0
     c7c:	2c b1       	in	r18, 0x0c	; 12
     c7e:	e0 5f       	subi	r30, 0xF0	; 240
     c80:	fa 4f       	sbci	r31, 0xFA	; 250
     c82:	20 83       	st	Z, r18
     c84:	8f 5f       	subi	r24, 0xFF	; 255
     c86:	80 93 b1 00 	sts	0x00B1, r24
		write_size++;
     c8a:	9f 5f       	subi	r25, 0xFF	; 255
     c8c:	90 93 b3 00 	sts	0x00B3, r25
		if(write_pos > UART_RECEIVE_BUFFER_SIZE) 
     c90:	81 32       	cpi	r24, 0x21	; 33
     c92:	10 f0       	brcs	.+4      	; 0xc98 <__vector_13+0x48>
			write_pos = 0;
     c94:	10 92 b1 00 	sts	0x00B1, r1
		uart_status = UART_BUFFER_OK;
     c98:	10 92 0f 05 	sts	0x050F, r1
     c9c:	06 c0       	rjmp	.+12     	; 0xcaa <__vector_13+0x5a>
	}
	else {	
		dummy = UDR;
     c9e:	8c b1       	in	r24, 0x0c	; 12
     ca0:	80 93 b5 00 	sts	0x00B5, r24
		uart_status = UART_BUFFER_OVERFLOW;
     ca4:	81 e0       	ldi	r24, 0x01	; 1
     ca6:	80 93 0f 05 	sts	0x050F, r24
	}
}
     caa:	ff 91       	pop	r31
     cac:	ef 91       	pop	r30
     cae:	9f 91       	pop	r25
     cb0:	8f 91       	pop	r24
     cb2:	2f 91       	pop	r18
     cb4:	0f 90       	pop	r0
     cb6:	0f be       	out	0x3f, r0	; 63
     cb8:	0f 90       	pop	r0
     cba:	1f 90       	pop	r1
     cbc:	18 95       	reti

00000cbe <readChar>:
 * // [...]
 *
 */
char readChar(void)
{
	uart_status = UART_BUFFER_OK;
     cbe:	10 92 0f 05 	sts	0x050F, r1
	if(((uint8_t)(write_size - read_size)) > 0) {
     cc2:	80 91 b2 00 	lds	r24, 0x00B2
     cc6:	90 91 b3 00 	lds	r25, 0x00B3
     cca:	98 17       	cp	r25, r24
     ccc:	a1 f0       	breq	.+40     	; 0xcf6 <readChar+0x38>
		read_size++;
     cce:	8f 5f       	subi	r24, 0xFF	; 255
     cd0:	80 93 b2 00 	sts	0x00B2, r24
		if(read_pos > UART_RECEIVE_BUFFER_SIZE) 
     cd4:	80 91 b0 00 	lds	r24, 0x00B0
     cd8:	81 32       	cpi	r24, 0x21	; 33
     cda:	10 f0       	brcs	.+4      	; 0xce0 <readChar+0x22>
			read_pos = 0;
     cdc:	10 92 b0 00 	sts	0x00B0, r1
		return uart_receive_buffer[read_pos++];
     ce0:	90 91 b0 00 	lds	r25, 0x00B0
     ce4:	e9 2f       	mov	r30, r25
     ce6:	f0 e0       	ldi	r31, 0x00	; 0
     ce8:	e0 5f       	subi	r30, 0xF0	; 240
     cea:	fa 4f       	sbci	r31, 0xFA	; 250
     cec:	80 81       	ld	r24, Z
     cee:	9f 5f       	subi	r25, 0xFF	; 255
     cf0:	90 93 b0 00 	sts	0x00B0, r25
     cf4:	08 95       	ret
	}
	return 0;
     cf6:	80 e0       	ldi	r24, 0x00	; 0
}
     cf8:	08 95       	ret

00000cfa <readChars>:
 * circular buffer to buf. 
 * It also returns the number of characters really copied to the buffer! 
 * Just in case that there were fewer chars in the buffer...
 */
uint8_t readChars(char *buf, uint8_t numberOfChars)
{
     cfa:	9c 01       	movw	r18, r24
	uint8_t i = 0;
	uart_status = UART_BUFFER_OK;
     cfc:	10 92 0f 05 	sts	0x050F, r1
 * It also returns the number of characters really copied to the buffer! 
 * Just in case that there were fewer chars in the buffer...
 */
uint8_t readChars(char *buf, uint8_t numberOfChars)
{
	uint8_t i = 0;
     d00:	80 e0       	ldi	r24, 0x00	; 0
	uart_status = UART_BUFFER_OK;
	while(((uint8_t)(write_size - read_size)) >= numberOfChars) {
     d02:	16 c0       	rjmp	.+44     	; 0xd30 <readChars+0x36>
		read_size++;
     d04:	4f 5f       	subi	r20, 0xFF	; 255
     d06:	40 93 b2 00 	sts	0x00B2, r20
		buf[i++] = uart_receive_buffer[read_pos++];
     d0a:	90 91 b0 00 	lds	r25, 0x00B0
     d0e:	e9 2f       	mov	r30, r25
     d10:	f0 e0       	ldi	r31, 0x00	; 0
     d12:	e0 5f       	subi	r30, 0xF0	; 240
     d14:	fa 4f       	sbci	r31, 0xFA	; 250
     d16:	40 81       	ld	r20, Z
     d18:	f9 01       	movw	r30, r18
     d1a:	e8 0f       	add	r30, r24
     d1c:	f1 1d       	adc	r31, r1
     d1e:	40 83       	st	Z, r20
     d20:	8f 5f       	subi	r24, 0xFF	; 255
     d22:	9f 5f       	subi	r25, 0xFF	; 255
     d24:	90 93 b0 00 	sts	0x00B0, r25
		if(read_pos > UART_RECEIVE_BUFFER_SIZE) 
     d28:	91 32       	cpi	r25, 0x21	; 33
     d2a:	10 f0       	brcs	.+4      	; 0xd30 <readChars+0x36>
			read_pos = 0;
     d2c:	10 92 b0 00 	sts	0x00B0, r1
 */
uint8_t readChars(char *buf, uint8_t numberOfChars)
{
	uint8_t i = 0;
	uart_status = UART_BUFFER_OK;
	while(((uint8_t)(write_size - read_size)) >= numberOfChars) {
     d30:	40 91 b2 00 	lds	r20, 0x00B2
     d34:	90 91 b3 00 	lds	r25, 0x00B3
     d38:	94 1b       	sub	r25, r20
     d3a:	96 17       	cp	r25, r22
     d3c:	18 f7       	brcc	.-58     	; 0xd04 <readChars+0xa>
		buf[i++] = uart_receive_buffer[read_pos++];
		if(read_pos > UART_RECEIVE_BUFFER_SIZE) 
			read_pos = 0;
	}
	return i;
}
     d3e:	08 95       	ret

00000d40 <getBufferLength>:
 * Example:
 * s. readChar function above!
 */
uint8_t getBufferLength(void)
{
	return (((uint8_t)(write_size - read_size)));
     d40:	80 91 b3 00 	lds	r24, 0x00B3
     d44:	90 91 b2 00 	lds	r25, 0x00B2
}
     d48:	89 1b       	sub	r24, r25
     d4a:	08 95       	ret

00000d4c <clearReceptionBuffer>:
 * interrupt for a short period of time. 
 */
void clearReceptionBuffer(void)
{
	static uint8_t dummy;
	UCSRB &= ~(1 << RXCIE); // disable UART RX Interrupt
     d4c:	57 98       	cbi	0x0a, 7	; 10
	dummy = UDR;
     d4e:	8c b1       	in	r24, 0x0c	; 12
     d50:	80 93 b4 00 	sts	0x00B4, r24
	read_pos = 0;
     d54:	10 92 b0 00 	sts	0x00B0, r1
	write_pos = 0; 
     d58:	10 92 b1 00 	sts	0x00B1, r1
	read_size = 0;
     d5c:	10 92 b2 00 	sts	0x00B2, r1
	write_size = 0;
     d60:	10 92 b3 00 	sts	0x00B3, r1
	uart_status = UART_BUFFER_OK;
     d64:	10 92 0f 05 	sts	0x050F, r1
	UCSRB |= (1 << RXCIE); // enable Interrupt again
     d68:	57 9a       	sbi	0x0a, 7	; 10
}
     d6a:	08 95       	ret

00000d6c <I2CTWI_requestedDataReady_DUMMY>:

/*****************************************************************************/
// TWI Event handlers
// These functions are used to receive Data or react on errors.

void I2CTWI_requestedDataReady_DUMMY(uint8_t requestID){}
     d6c:	08 95       	ret

00000d6e <I2CTWI_transmissionError_DUMMY>:
void I2CTWI_setRequestedDataReadyHandler(void (*requestedDataReadyHandler)(uint8_t))
{
	I2CTWI_requestedDataReadyHandler = requestedDataReadyHandler;
}

void I2CTWI_transmissionError_DUMMY(uint8_t requestID){}
     d6e:	08 95       	ret

00000d70 <__I2CTWI_initMaster>:
 * 							// but directly calculated with the formula in the
 *							// MEGA32 datasheet.
 */
void __I2CTWI_initMaster(uint8_t twi_bitrate)
{
	cli();
     d70:	f8 94       	cli
	TWBR = twi_bitrate;
     d72:	80 b9       	out	0x00, r24	; 0
	TWSR = 0x00;      // DO NOT USE PRESCALER! Otherwise you need to mask the
     d74:	11 b8       	out	0x01, r1	; 1
	TWDR = 0xFF;      // TWSR Prescaler bits everywhere TWSR is read!  	      
     d76:	8f ef       	ldi	r24, 0xFF	; 255
     d78:	83 b9       	out	0x03, r24	; 3
	TWCR = (1<<TWEN);
     d7a:	84 e0       	ldi	r24, 0x04	; 4
     d7c:	86 bf       	out	0x36, r24	; 54
	TWI_statusReg.lastTransOK = 1;
     d7e:	80 91 b6 00 	lds	r24, 0x00B6
     d82:	81 60       	ori	r24, 0x01	; 1
     d84:	80 93 b6 00 	sts	0x00B6, r24
    sei();                      
     d88:	78 94       	sei
}
     d8a:	08 95       	ret

00000d8c <I2CTWI_setRequestedDataReadyHandler>:

void I2CTWI_requestedDataReady_DUMMY(uint8_t requestID){}
static void (*I2CTWI_requestedDataReadyHandler)(uint8_t) = I2CTWI_requestedDataReady_DUMMY;
void I2CTWI_setRequestedDataReadyHandler(void (*requestedDataReadyHandler)(uint8_t))
{
	I2CTWI_requestedDataReadyHandler = requestedDataReadyHandler;
     d8c:	90 93 67 00 	sts	0x0067, r25
     d90:	80 93 66 00 	sts	0x0066, r24
}
     d94:	08 95       	ret

00000d96 <I2CTWI_setTransmissionErrorHandler>:

void I2CTWI_transmissionError_DUMMY(uint8_t requestID){}
static void (*I2CTWI_transmissionErrorHandler)(uint8_t) = I2CTWI_transmissionError_DUMMY;
void I2CTWI_setTransmissionErrorHandler(void (*transmissionErrorHandler)(uint8_t))
{
	I2CTWI_transmissionErrorHandler = transmissionErrorHandler;
     d96:	90 93 69 00 	sts	0x0069, r25
     d9a:	80 93 68 00 	sts	0x0068, r24
}
     d9e:	08 95       	ret

00000da0 <I2CTWI_delay>:
/**
 * A small delay that is required between some transfers. Without this delay
 * the transmission may fail.
 */
void I2CTWI_delay(void)
{
     da0:	df 93       	push	r29
     da2:	cf 93       	push	r28
     da4:	0f 92       	push	r0
     da6:	cd b7       	in	r28, 0x3d	; 61
     da8:	de b7       	in	r29, 0x3e	; 62
	volatile uint8_t dly = 150;
     daa:	86 e9       	ldi	r24, 0x96	; 150
     dac:	89 83       	std	Y+1, r24	; 0x01
	while(dly--);
     dae:	89 81       	ldd	r24, Y+1	; 0x01
     db0:	98 2f       	mov	r25, r24
     db2:	91 50       	subi	r25, 0x01	; 1
     db4:	99 83       	std	Y+1, r25	; 0x01
     db6:	88 23       	and	r24, r24
     db8:	d1 f7       	brne	.-12     	; 0xdae <I2CTWI_delay+0xe>
}
     dba:	0f 90       	pop	r0
     dbc:	cf 91       	pop	r28
     dbe:	df 91       	pop	r29
     dc0:	08 95       	ret

00000dc2 <I2CTWI_getReceivedData>:
 * It does not make sense to use this function anywhere else as you 
 * can not guarantee what is in the reception buffer...
 */
void I2CTWI_getReceivedData(uint8_t *msg, uint8_t msgSize)
{
	while(I2CTWI_isBusy());
     dc2:	06 b6       	in	r0, 0x36	; 54
     dc4:	00 fc       	sbrc	r0, 0
     dc6:	fd cf       	rjmp	.-6      	; 0xdc2 <I2CTWI_getReceivedData>
	uint8_t i = 0;
	if(TWI_statusReg.lastTransOK)
     dc8:	20 91 b6 00 	lds	r18, 0x00B6
     dcc:	20 ff       	sbrs	r18, 0
     dce:	0c c0       	rjmp	.+24     	; 0xde8 <I2CTWI_getReceivedData+0x26>
     dd0:	e0 ed       	ldi	r30, 0xD0	; 208
     dd2:	f0 e0       	ldi	r31, 0x00	; 0
     dd4:	dc 01       	movw	r26, r24
 * You can specify the number of bytes you want to read out of the buffer
 * with the msgSize parameter.
 * It does not make sense to use this function anywhere else as you 
 * can not guarantee what is in the reception buffer...
 */
void I2CTWI_getReceivedData(uint8_t *msg, uint8_t msgSize)
     dd6:	70 e0       	ldi	r23, 0x00	; 0
     dd8:	6e 0f       	add	r22, r30
     dda:	7f 1f       	adc	r23, r31
     ddc:	02 c0       	rjmp	.+4      	; 0xde2 <I2CTWI_getReceivedData+0x20>
{
	while(I2CTWI_isBusy());
	uint8_t i = 0;
	if(TWI_statusReg.lastTransOK)
		for(; i < msgSize; i++)
			msg[i] = I2CTWI_recbuf[i+1];
     dde:	81 91       	ld	r24, Z+
     de0:	8d 93       	st	X+, r24
void I2CTWI_getReceivedData(uint8_t *msg, uint8_t msgSize)
{
	while(I2CTWI_isBusy());
	uint8_t i = 0;
	if(TWI_statusReg.lastTransOK)
		for(; i < msgSize; i++)
     de2:	e6 17       	cp	r30, r22
     de4:	f7 07       	cpc	r31, r23
     de6:	d9 f7       	brne	.-10     	; 0xdde <I2CTWI_getReceivedData+0x1c>
     de8:	08 95       	ret

00000dea <I2CTWI_getState>:
 * This function returns the last TWI State / Error State. It waits until
 * TWI Module has completed last operation! 
 */
uint8_t I2CTWI_getState(void)
{
	while(I2CTWI_isBusy()); // Wait until TWI has completed the transmission.
     dea:	06 b6       	in	r0, 0x36	; 54
     dec:	00 fc       	sbrc	r0, 0
     dee:	fd cf       	rjmp	.-6      	; 0xdea <I2CTWI_getState>
	return (TWI_TWSR_state); // Return error state.
}
     df0:	80 91 b7 00 	lds	r24, 0x00B7
     df4:	08 95       	ret

00000df6 <task_I2CTWI>:
 * You have to call this functions frequently out of the
 * main loop. It calls the event handlers above automatically if data has been received.
 */
void task_I2CTWI(void)
{
	if (!I2CTWI_isBusy()) {
     df6:	06 b6       	in	r0, 0x36	; 54
     df8:	00 fc       	sbrc	r0, 0
     dfa:	5f c0       	rjmp	.+190    	; 0xeba <task_I2CTWI+0xc4>
		if (TWI_statusReg.lastTransOK) {
     dfc:	80 91 b6 00 	lds	r24, 0x00B6
     e00:	80 ff       	sbrs	r24, 0
     e02:	43 c0       	rjmp	.+134    	; 0xe8a <task_I2CTWI+0x94>
			if(TWI_operation) {
     e04:	80 91 bd 00 	lds	r24, 0x00BD
     e08:	88 23       	and	r24, r24
     e0a:	09 f4       	brne	.+2      	; 0xe0e <task_I2CTWI+0x18>
     e0c:	56 c0       	rjmp	.+172    	; 0xeba <task_I2CTWI+0xc4>
				if(TWI_operation == I2CTWI_SEND_REGISTER) {
     e0e:	81 30       	cpi	r24, 0x01	; 1
     e10:	91 f4       	brne	.+36     	; 0xe36 <task_I2CTWI+0x40>
					I2CTWI_delay();
     e12:	0e 94 d0 06 	call	0xda0	; 0xda0 <I2CTWI_delay>
					TWI_msgSize = 2;
     e16:	82 e0       	ldi	r24, 0x02	; 2
     e18:	80 93 be 00 	sts	0x00BE, r24
					I2CTWI_buf[0] = I2CTWI_request_adr;
     e1c:	90 91 b8 00 	lds	r25, 0x00B8
     e20:	90 93 bf 00 	sts	0x00BF, r25
					I2CTWI_buf[1] = I2CTWI_request_reg;
     e24:	90 91 b9 00 	lds	r25, 0x00B9
     e28:	90 93 c0 00 	sts	0x00C0, r25
					TWI_statusReg.all = 0;
     e2c:	10 92 b6 00 	sts	0x00B6, r1
					TWCR = (1<<TWEN)|(1<<TWIE)|(1<<TWINT)|(0<<TWEA)|(1<<TWSTA)|(0<<TWSTO);
     e30:	95 ea       	ldi	r25, 0xA5	; 165
     e32:	96 bf       	out	0x36, r25	; 54
     e34:	15 c0       	rjmp	.+42     	; 0xe60 <task_I2CTWI+0x6a>
					TWI_operation = I2CTWI_REQUEST_BYTES;
				}
				else if (TWI_operation == I2CTWI_REQUEST_BYTES) {
     e36:	82 30       	cpi	r24, 0x02	; 2
     e38:	b1 f4       	brne	.+44     	; 0xe66 <task_I2CTWI+0x70>
					I2CTWI_delay();
     e3a:	0e 94 d0 06 	call	0xda0	; 0xda0 <I2CTWI_delay>
					TWI_msgSize = I2CTWI_request_size + 1;
     e3e:	80 91 ba 00 	lds	r24, 0x00BA
     e42:	8f 5f       	subi	r24, 0xFF	; 255
     e44:	80 93 be 00 	sts	0x00BE, r24
					I2CTWI_request_adr = I2CTWI_request_adr | TWI_READ;
     e48:	80 91 b8 00 	lds	r24, 0x00B8
     e4c:	81 60       	ori	r24, 0x01	; 1
     e4e:	80 93 b8 00 	sts	0x00B8, r24
					I2CTWI_buf[0]  = I2CTWI_request_adr | TWI_READ; 
     e52:	80 93 bf 00 	sts	0x00BF, r24
					TWI_statusReg.all = 0;
     e56:	10 92 b6 00 	sts	0x00B6, r1
					TWCR = (1<<TWEN)|(1<<TWIE)|(1<<TWINT)|(0<<TWEA)|(1<<TWSTA)|(0<<TWSTO);	
     e5a:	85 ea       	ldi	r24, 0xA5	; 165
     e5c:	86 bf       	out	0x36, r24	; 54
					TWI_operation = I2CTWI_READ_BYTES_FROM_BUFFER;
     e5e:	83 e0       	ldi	r24, 0x03	; 3
     e60:	80 93 bd 00 	sts	0x00BD, r24
     e64:	08 95       	ret
				}
				else if (TWI_operation == I2CTWI_READ_BYTES_FROM_BUFFER) { 
     e66:	83 30       	cpi	r24, 0x03	; 3
     e68:	41 f5       	brne	.+80     	; 0xeba <task_I2CTWI+0xc4>
					TWI_operation = I2CTWI_NO_OPERATION;
     e6a:	10 92 bd 00 	sts	0x00BD, r1
					if(I2CTWI_requestID!=-1)
     e6e:	80 91 bb 00 	lds	r24, 0x00BB
     e72:	90 91 bc 00 	lds	r25, 0x00BC
     e76:	2f ef       	ldi	r18, 0xFF	; 255
     e78:	8f 3f       	cpi	r24, 0xFF	; 255
     e7a:	92 07       	cpc	r25, r18
     e7c:	f1 f0       	breq	.+60     	; 0xeba <task_I2CTWI+0xc4>
						I2CTWI_requestedDataReadyHandler(I2CTWI_requestID);
     e7e:	e0 91 66 00 	lds	r30, 0x0066
     e82:	f0 91 67 00 	lds	r31, 0x0067
     e86:	09 95       	icall
     e88:	08 95       	ret
				}
			}
		}
		else {
			uint8_t errState = I2CTWI_getState();
     e8a:	0e 94 f5 06 	call	0xdea	; 0xdea <I2CTWI_getState>
			if(errState != 0) {
     e8e:	88 23       	and	r24, r24
     e90:	a1 f0       	breq	.+40     	; 0xeba <task_I2CTWI+0xc4>
				TWI_operation = I2CTWI_NO_OPERATION;
     e92:	10 92 bd 00 	sts	0x00BD, r1
				TWI_statusReg.lastTransOK = 1;
     e96:	90 91 b6 00 	lds	r25, 0x00B6
     e9a:	91 60       	ori	r25, 0x01	; 1
     e9c:	90 93 b6 00 	sts	0x00B6, r25
				I2CTWI_request_adr = 0;
     ea0:	10 92 b8 00 	sts	0x00B8, r1
				I2CTWI_requestID = 0;
     ea4:	10 92 bc 00 	sts	0x00BC, r1
     ea8:	10 92 bb 00 	sts	0x00BB, r1
				I2CTWI_request_size = 0;
     eac:	10 92 ba 00 	sts	0x00BA, r1
				I2CTWI_transmissionErrorHandler(errState);
     eb0:	e0 91 68 00 	lds	r30, 0x0068
     eb4:	f0 91 69 00 	lds	r31, 0x0069
     eb8:	09 95       	icall
     eba:	08 95       	ret

00000ebc <I2CTWI_requestRegisterFromDevice>:
 * that has to be read and transmits the register number before! 
 * This is neccessary for the reaction on interrupt requests of slave devices as this
 * function is non-blocking and thus very well suited for calls directly from ISRs. 
 */
void I2CTWI_requestRegisterFromDevice(uint8_t targetAdr, uint8_t requestID, uint8_t reg, uint8_t numberOfBytes)
{	
     ebc:	df 93       	push	r29
     ebe:	cf 93       	push	r28
     ec0:	00 d0       	rcall	.+0      	; 0xec2 <I2CTWI_requestRegisterFromDevice+0x6>
     ec2:	00 d0       	rcall	.+0      	; 0xec4 <I2CTWI_requestRegisterFromDevice+0x8>
     ec4:	cd b7       	in	r28, 0x3d	; 61
     ec6:	de b7       	in	r29, 0x3e	; 62
	while(I2CTWI_isBusy() || TWI_operation != I2CTWI_NO_OPERATION) task_I2CTWI();
     ec8:	0a c0       	rjmp	.+20     	; 0xede <I2CTWI_requestRegisterFromDevice+0x22>
     eca:	2c 83       	std	Y+4, r18	; 0x04
     ecc:	4b 83       	std	Y+3, r20	; 0x03
     ece:	6a 83       	std	Y+2, r22	; 0x02
     ed0:	89 83       	std	Y+1, r24	; 0x01
     ed2:	0e 94 fb 06 	call	0xdf6	; 0xdf6 <task_I2CTWI>
     ed6:	89 81       	ldd	r24, Y+1	; 0x01
     ed8:	6a 81       	ldd	r22, Y+2	; 0x02
     eda:	4b 81       	ldd	r20, Y+3	; 0x03
     edc:	2c 81       	ldd	r18, Y+4	; 0x04
     ede:	06 b6       	in	r0, 0x36	; 54
     ee0:	00 fc       	sbrc	r0, 0
     ee2:	f3 cf       	rjmp	.-26     	; 0xeca <I2CTWI_requestRegisterFromDevice+0xe>
     ee4:	90 91 bd 00 	lds	r25, 0x00BD
     ee8:	99 23       	and	r25, r25
     eea:	79 f7       	brne	.-34     	; 0xeca <I2CTWI_requestRegisterFromDevice+0xe>
	TWI_operation = I2CTWI_SEND_REGISTER;
     eec:	91 e0       	ldi	r25, 0x01	; 1
     eee:	90 93 bd 00 	sts	0x00BD, r25
	I2CTWI_requestID = (int16_t)requestID;
     ef2:	60 93 bb 00 	sts	0x00BB, r22
     ef6:	10 92 bc 00 	sts	0x00BC, r1
	I2CTWI_request_adr = targetAdr;
     efa:	80 93 b8 00 	sts	0x00B8, r24
	I2CTWI_request_reg = reg;
     efe:	40 93 b9 00 	sts	0x00B9, r20
	I2CTWI_request_size = numberOfBytes;
     f02:	20 93 ba 00 	sts	0x00BA, r18
}
     f06:	0f 90       	pop	r0
     f08:	0f 90       	pop	r0
     f0a:	0f 90       	pop	r0
     f0c:	0f 90       	pop	r0
     f0e:	cf 91       	pop	r28
     f10:	df 91       	pop	r29
     f12:	08 95       	ret

00000f14 <I2CTWI_requestDataFromDevice>:
 * Requests a number of Bytes from the target device. You need to set a requestID 
 * to be able to identify the request after the data has been received and the 
 * "requestedDataReady" event handler is called.
 */
void I2CTWI_requestDataFromDevice(uint8_t targetAdr, uint8_t requestID, uint8_t numberOfBytes)
{	
     f14:	df 93       	push	r29
     f16:	cf 93       	push	r28
     f18:	00 d0       	rcall	.+0      	; 0xf1a <I2CTWI_requestDataFromDevice+0x6>
     f1a:	0f 92       	push	r0
     f1c:	cd b7       	in	r28, 0x3d	; 61
     f1e:	de b7       	in	r29, 0x3e	; 62
	while(I2CTWI_isBusy() || TWI_operation != I2CTWI_NO_OPERATION) task_I2CTWI();
     f20:	08 c0       	rjmp	.+16     	; 0xf32 <I2CTWI_requestDataFromDevice+0x1e>
     f22:	4b 83       	std	Y+3, r20	; 0x03
     f24:	6a 83       	std	Y+2, r22	; 0x02
     f26:	89 83       	std	Y+1, r24	; 0x01
     f28:	0e 94 fb 06 	call	0xdf6	; 0xdf6 <task_I2CTWI>
     f2c:	89 81       	ldd	r24, Y+1	; 0x01
     f2e:	6a 81       	ldd	r22, Y+2	; 0x02
     f30:	4b 81       	ldd	r20, Y+3	; 0x03
     f32:	06 b6       	in	r0, 0x36	; 54
     f34:	00 fc       	sbrc	r0, 0
     f36:	f5 cf       	rjmp	.-22     	; 0xf22 <I2CTWI_requestDataFromDevice+0xe>
     f38:	90 91 bd 00 	lds	r25, 0x00BD
     f3c:	99 23       	and	r25, r25
     f3e:	89 f7       	brne	.-30     	; 0xf22 <I2CTWI_requestDataFromDevice+0xe>
	TWI_operation = I2CTWI_REQUEST_BYTES;
     f40:	92 e0       	ldi	r25, 0x02	; 2
     f42:	90 93 bd 00 	sts	0x00BD, r25
	I2CTWI_request_adr = targetAdr;
     f46:	80 93 b8 00 	sts	0x00B8, r24
	I2CTWI_requestID = (int16_t)requestID;
     f4a:	60 93 bb 00 	sts	0x00BB, r22
     f4e:	10 92 bc 00 	sts	0x00BC, r1
	I2CTWI_request_size = numberOfBytes;
     f52:	40 93 ba 00 	sts	0x00BA, r20
}
     f56:	0f 90       	pop	r0
     f58:	0f 90       	pop	r0
     f5a:	0f 90       	pop	r0
     f5c:	cf 91       	pop	r28
     f5e:	df 91       	pop	r29
     f60:	08 95       	ret

00000f62 <I2CTWI_readRegisters>:
/**
 * Reads "numberOfBytes" from "targetAdr" Register "reg" into "messageBuffer". 
 * If the slave device supports auto increment, then it reads all subsequent registers of course! 
 */
void I2CTWI_readRegisters(uint8_t targetAdr, uint8_t reg, uint8_t * messageBuffer, uint8_t numberOfBytes)
{
     f62:	ef 92       	push	r14
     f64:	ff 92       	push	r15
     f66:	0f 93       	push	r16
     f68:	1f 93       	push	r17
     f6a:	df 93       	push	r29
     f6c:	cf 93       	push	r28
     f6e:	0f 92       	push	r0
     f70:	cd b7       	in	r28, 0x3d	; 61
     f72:	de b7       	in	r29, 0x3e	; 62
     f74:	16 2f       	mov	r17, r22
     f76:	7a 01       	movw	r14, r20
     f78:	02 2f       	mov	r16, r18
	while(I2CTWI_isBusy() || TWI_operation != I2CTWI_NO_OPERATION) task_I2CTWI();
     f7a:	04 c0       	rjmp	.+8      	; 0xf84 <I2CTWI_readRegisters+0x22>
     f7c:	89 83       	std	Y+1, r24	; 0x01
     f7e:	0e 94 fb 06 	call	0xdf6	; 0xdf6 <task_I2CTWI>
     f82:	89 81       	ldd	r24, Y+1	; 0x01
     f84:	06 b6       	in	r0, 0x36	; 54
     f86:	00 fc       	sbrc	r0, 0
     f88:	f9 cf       	rjmp	.-14     	; 0xf7c <I2CTWI_readRegisters+0x1a>
     f8a:	90 91 bd 00 	lds	r25, 0x00BD
     f8e:	99 23       	and	r25, r25
     f90:	a9 f7       	brne	.-22     	; 0xf7c <I2CTWI_readRegisters+0x1a>
	TWI_operation = I2CTWI_SEND_REGISTER;
     f92:	91 e0       	ldi	r25, 0x01	; 1
     f94:	90 93 bd 00 	sts	0x00BD, r25
	I2CTWI_request_adr = targetAdr;
     f98:	80 93 b8 00 	sts	0x00B8, r24
	I2CTWI_requestID = -1;
     f9c:	8f ef       	ldi	r24, 0xFF	; 255
     f9e:	9f ef       	ldi	r25, 0xFF	; 255
     fa0:	90 93 bc 00 	sts	0x00BC, r25
     fa4:	80 93 bb 00 	sts	0x00BB, r24
	I2CTWI_request_reg = reg;
     fa8:	10 93 b9 00 	sts	0x00B9, r17
	I2CTWI_request_size = numberOfBytes;
     fac:	00 93 ba 00 	sts	0x00BA, r16
	while(I2CTWI_isBusy() || TWI_operation != I2CTWI_NO_OPERATION) task_I2CTWI();
     fb0:	02 c0       	rjmp	.+4      	; 0xfb6 <I2CTWI_readRegisters+0x54>
     fb2:	0e 94 fb 06 	call	0xdf6	; 0xdf6 <task_I2CTWI>
     fb6:	06 b6       	in	r0, 0x36	; 54
     fb8:	00 fc       	sbrc	r0, 0
     fba:	fb cf       	rjmp	.-10     	; 0xfb2 <I2CTWI_readRegisters+0x50>
     fbc:	80 91 bd 00 	lds	r24, 0x00BD
     fc0:	88 23       	and	r24, r24
     fc2:	b9 f7       	brne	.-18     	; 0xfb2 <I2CTWI_readRegisters+0x50>
	if (TWI_statusReg.lastTransOK) 
     fc4:	80 91 b6 00 	lds	r24, 0x00B6
     fc8:	80 ff       	sbrs	r24, 0
     fca:	05 c0       	rjmp	.+10     	; 0xfd6 <I2CTWI_readRegisters+0x74>
		I2CTWI_getReceivedData(&messageBuffer[0], numberOfBytes+1);
     fcc:	60 2f       	mov	r22, r16
     fce:	6f 5f       	subi	r22, 0xFF	; 255
     fd0:	c7 01       	movw	r24, r14
     fd2:	0e 94 e1 06 	call	0xdc2	; 0xdc2 <I2CTWI_getReceivedData>
}
     fd6:	0f 90       	pop	r0
     fd8:	cf 91       	pop	r28
     fda:	df 91       	pop	r29
     fdc:	1f 91       	pop	r17
     fde:	0f 91       	pop	r16
     fe0:	ff 90       	pop	r15
     fe2:	ef 90       	pop	r14
     fe4:	08 95       	ret

00000fe6 <I2CTWI_readBytes>:
 * Same as readRegisters, but you need to make sure which register to read yourself - if there
 * are any registers at all in your slave device.  
 * 
 */
void I2CTWI_readBytes(uint8_t targetAdr, uint8_t * messageBuffer, uint8_t numberOfBytes)
{
     fe6:	0f 93       	push	r16
     fe8:	1f 93       	push	r17
     fea:	cf 93       	push	r28
     fec:	df 93       	push	r29
     fee:	18 2f       	mov	r17, r24
     ff0:	eb 01       	movw	r28, r22
     ff2:	04 2f       	mov	r16, r20
	while(I2CTWI_isBusy() || TWI_operation != I2CTWI_NO_OPERATION) task_I2CTWI();
     ff4:	02 c0       	rjmp	.+4      	; 0xffa <I2CTWI_readBytes+0x14>
     ff6:	0e 94 fb 06 	call	0xdf6	; 0xdf6 <task_I2CTWI>
     ffa:	06 b6       	in	r0, 0x36	; 54
     ffc:	00 fc       	sbrc	r0, 0
     ffe:	fb cf       	rjmp	.-10     	; 0xff6 <I2CTWI_readBytes+0x10>
    1000:	80 91 bd 00 	lds	r24, 0x00BD
    1004:	88 23       	and	r24, r24
    1006:	b9 f7       	brne	.-18     	; 0xff6 <I2CTWI_readBytes+0x10>
	I2CTWI_delay();
    1008:	0e 94 d0 06 	call	0xda0	; 0xda0 <I2CTWI_delay>
	TWI_operation = I2CTWI_REQUEST_BYTES;
    100c:	82 e0       	ldi	r24, 0x02	; 2
    100e:	80 93 bd 00 	sts	0x00BD, r24
	I2CTWI_request_adr = targetAdr;
    1012:	10 93 b8 00 	sts	0x00B8, r17
	I2CTWI_requestID = -1;
    1016:	8f ef       	ldi	r24, 0xFF	; 255
    1018:	9f ef       	ldi	r25, 0xFF	; 255
    101a:	90 93 bc 00 	sts	0x00BC, r25
    101e:	80 93 bb 00 	sts	0x00BB, r24
	I2CTWI_request_size = numberOfBytes;
    1022:	00 93 ba 00 	sts	0x00BA, r16
	while(I2CTWI_isBusy() || TWI_operation != I2CTWI_NO_OPERATION) task_I2CTWI();
    1026:	02 c0       	rjmp	.+4      	; 0x102c <I2CTWI_readBytes+0x46>
    1028:	0e 94 fb 06 	call	0xdf6	; 0xdf6 <task_I2CTWI>
    102c:	06 b6       	in	r0, 0x36	; 54
    102e:	00 fc       	sbrc	r0, 0
    1030:	fb cf       	rjmp	.-10     	; 0x1028 <I2CTWI_readBytes+0x42>
    1032:	80 91 bd 00 	lds	r24, 0x00BD
    1036:	88 23       	and	r24, r24
    1038:	b9 f7       	brne	.-18     	; 0x1028 <I2CTWI_readBytes+0x42>
	if (TWI_statusReg.lastTransOK) 
    103a:	80 91 b6 00 	lds	r24, 0x00B6
    103e:	80 ff       	sbrs	r24, 0
    1040:	05 c0       	rjmp	.+10     	; 0x104c <I2CTWI_readBytes+0x66>
		I2CTWI_getReceivedData(&messageBuffer[0], numberOfBytes+1);
    1042:	60 2f       	mov	r22, r16
    1044:	6f 5f       	subi	r22, 0xFF	; 255
    1046:	ce 01       	movw	r24, r28
    1048:	0e 94 e1 06 	call	0xdc2	; 0xdc2 <I2CTWI_getReceivedData>
}
    104c:	df 91       	pop	r29
    104e:	cf 91       	pop	r28
    1050:	1f 91       	pop	r17
    1052:	0f 91       	pop	r16
    1054:	08 95       	ret

00001056 <I2CTWI_readByte>:

/**
 * Reads a single byte from the slave device. 
 */
uint8_t I2CTWI_readByte(uint8_t targetAdr)
{
    1056:	1f 93       	push	r17
    1058:	18 2f       	mov	r17, r24
	while(I2CTWI_isBusy() || TWI_operation != I2CTWI_NO_OPERATION) task_I2CTWI();
    105a:	02 c0       	rjmp	.+4      	; 0x1060 <I2CTWI_readByte+0xa>
    105c:	0e 94 fb 06 	call	0xdf6	; 0xdf6 <task_I2CTWI>
    1060:	06 b6       	in	r0, 0x36	; 54
    1062:	00 fc       	sbrc	r0, 0
    1064:	fb cf       	rjmp	.-10     	; 0x105c <I2CTWI_readByte+0x6>
    1066:	80 91 bd 00 	lds	r24, 0x00BD
    106a:	88 23       	and	r24, r24
    106c:	b9 f7       	brne	.-18     	; 0x105c <I2CTWI_readByte+0x6>
	I2CTWI_delay();
    106e:	0e 94 d0 06 	call	0xda0	; 0xda0 <I2CTWI_delay>
	TWI_operation = I2CTWI_REQUEST_BYTES;
    1072:	82 e0       	ldi	r24, 0x02	; 2
    1074:	80 93 bd 00 	sts	0x00BD, r24
	I2CTWI_request_adr = targetAdr;
    1078:	10 93 b8 00 	sts	0x00B8, r17
	I2CTWI_requestID = -1;
    107c:	8f ef       	ldi	r24, 0xFF	; 255
    107e:	9f ef       	ldi	r25, 0xFF	; 255
    1080:	90 93 bc 00 	sts	0x00BC, r25
    1084:	80 93 bb 00 	sts	0x00BB, r24
	I2CTWI_request_size = 1;
    1088:	81 e0       	ldi	r24, 0x01	; 1
    108a:	80 93 ba 00 	sts	0x00BA, r24
	while(TWI_operation != I2CTWI_NO_OPERATION) task_I2CTWI();
    108e:	02 c0       	rjmp	.+4      	; 0x1094 <I2CTWI_readByte+0x3e>
    1090:	0e 94 fb 06 	call	0xdf6	; 0xdf6 <task_I2CTWI>
    1094:	80 91 bd 00 	lds	r24, 0x00BD
    1098:	88 23       	and	r24, r24
    109a:	d1 f7       	brne	.-12     	; 0x1090 <I2CTWI_readByte+0x3a>
	if (TWI_statusReg.lastTransOK)
    109c:	80 91 b6 00 	lds	r24, 0x00B6
    10a0:	80 ff       	sbrs	r24, 0
    10a2:	03 c0       	rjmp	.+6      	; 0x10aa <I2CTWI_readByte+0x54>
		return I2CTWI_recbuf[1];
    10a4:	80 91 d0 00 	lds	r24, 0x00D0
    10a8:	01 c0       	rjmp	.+2      	; 0x10ac <I2CTWI_readByte+0x56>
	else
		return 0;
    10aa:	80 e0       	ldi	r24, 0x00	; 0
}
    10ac:	1f 91       	pop	r17
    10ae:	08 95       	ret

000010b0 <I2CTWI_transmitByte>:
 * it does NOT wait until this transmission is finished! 
 * This allows you to perform other things while the transmission is 
 * in progress! 
 */
void I2CTWI_transmitByte(uint8_t targetAdr, uint8_t data)
{
    10b0:	0f 93       	push	r16
    10b2:	1f 93       	push	r17
    10b4:	18 2f       	mov	r17, r24
    10b6:	06 2f       	mov	r16, r22
	while(I2CTWI_isBusy() || TWI_operation != I2CTWI_NO_OPERATION) task_I2CTWI();
    10b8:	02 c0       	rjmp	.+4      	; 0x10be <I2CTWI_transmitByte+0xe>
    10ba:	0e 94 fb 06 	call	0xdf6	; 0xdf6 <task_I2CTWI>
    10be:	06 b6       	in	r0, 0x36	; 54
    10c0:	00 fc       	sbrc	r0, 0
    10c2:	fb cf       	rjmp	.-10     	; 0x10ba <I2CTWI_transmitByte+0xa>
    10c4:	80 91 bd 00 	lds	r24, 0x00BD
    10c8:	88 23       	and	r24, r24
    10ca:	b9 f7       	brne	.-18     	; 0x10ba <I2CTWI_transmitByte+0xa>
	I2CTWI_delay();
    10cc:	0e 94 d0 06 	call	0xda0	; 0xda0 <I2CTWI_delay>
	TWI_msgSize = 2;
    10d0:	82 e0       	ldi	r24, 0x02	; 2
    10d2:	80 93 be 00 	sts	0x00BE, r24
	I2CTWI_buf[0] = targetAdr;
    10d6:	10 93 bf 00 	sts	0x00BF, r17
	I2CTWI_buf[1] = data;
    10da:	00 93 c0 00 	sts	0x00C0, r16
	TWI_statusReg.all = 0;
    10de:	10 92 b6 00 	sts	0x00B6, r1
	TWCR = (1<<TWEN)|(1<<TWIE)|(1<<TWINT)|(0<<TWEA)|(1<<TWSTA)|(0<<TWSTO);
    10e2:	85 ea       	ldi	r24, 0xA5	; 165
    10e4:	86 bf       	out	0x36, r24	; 54
}
    10e6:	1f 91       	pop	r17
    10e8:	0f 91       	pop	r16
    10ea:	08 95       	ret

000010ec <I2CTWI_transmit2Bytes>:
/**
 * This is just the same as transmitByte, but you can pass 2 Bytes to
 * this function which are then transferred. 
 */
void I2CTWI_transmit2Bytes(uint8_t targetAdr, uint8_t data1, uint8_t data2)
{
    10ec:	ff 92       	push	r15
    10ee:	0f 93       	push	r16
    10f0:	1f 93       	push	r17
    10f2:	18 2f       	mov	r17, r24
    10f4:	06 2f       	mov	r16, r22
    10f6:	f4 2e       	mov	r15, r20
	while(I2CTWI_isBusy() || TWI_operation != I2CTWI_NO_OPERATION) task_I2CTWI();
    10f8:	02 c0       	rjmp	.+4      	; 0x10fe <I2CTWI_transmit2Bytes+0x12>
    10fa:	0e 94 fb 06 	call	0xdf6	; 0xdf6 <task_I2CTWI>
    10fe:	06 b6       	in	r0, 0x36	; 54
    1100:	00 fc       	sbrc	r0, 0
    1102:	fb cf       	rjmp	.-10     	; 0x10fa <I2CTWI_transmit2Bytes+0xe>
    1104:	80 91 bd 00 	lds	r24, 0x00BD
    1108:	88 23       	and	r24, r24
    110a:	b9 f7       	brne	.-18     	; 0x10fa <I2CTWI_transmit2Bytes+0xe>
	I2CTWI_delay();
    110c:	0e 94 d0 06 	call	0xda0	; 0xda0 <I2CTWI_delay>
	TWI_msgSize = 3;
    1110:	83 e0       	ldi	r24, 0x03	; 3
    1112:	80 93 be 00 	sts	0x00BE, r24
	I2CTWI_buf[0] = targetAdr;
    1116:	10 93 bf 00 	sts	0x00BF, r17
	I2CTWI_buf[1] = data1;
    111a:	00 93 c0 00 	sts	0x00C0, r16
	I2CTWI_buf[2] = data2;
    111e:	f0 92 c1 00 	sts	0x00C1, r15
	TWI_statusReg.all = 0;
    1122:	10 92 b6 00 	sts	0x00B6, r1
	TWCR = (1<<TWEN)|(1<<TWIE)|(1<<TWINT)|(0<<TWEA)|(1<<TWSTA)|(0<<TWSTO);
    1126:	85 ea       	ldi	r24, 0xA5	; 165
    1128:	86 bf       	out	0x36, r24	; 54
}
    112a:	1f 91       	pop	r17
    112c:	0f 91       	pop	r16
    112e:	ff 90       	pop	r15
    1130:	08 95       	ret

00001132 <I2CTWI_transmit3Bytes>:

/**
 * Transmits 3 Bytes to the slave.
 */
void I2CTWI_transmit3Bytes(uint8_t targetAdr, uint8_t data1, uint8_t data2, uint8_t data3)
{
    1132:	ef 92       	push	r14
    1134:	ff 92       	push	r15
    1136:	0f 93       	push	r16
    1138:	1f 93       	push	r17
    113a:	18 2f       	mov	r17, r24
    113c:	06 2f       	mov	r16, r22
    113e:	f4 2e       	mov	r15, r20
    1140:	e2 2e       	mov	r14, r18
	while(I2CTWI_isBusy() || TWI_operation != I2CTWI_NO_OPERATION) task_I2CTWI();
    1142:	02 c0       	rjmp	.+4      	; 0x1148 <I2CTWI_transmit3Bytes+0x16>
    1144:	0e 94 fb 06 	call	0xdf6	; 0xdf6 <task_I2CTWI>
    1148:	06 b6       	in	r0, 0x36	; 54
    114a:	00 fc       	sbrc	r0, 0
    114c:	fb cf       	rjmp	.-10     	; 0x1144 <I2CTWI_transmit3Bytes+0x12>
    114e:	80 91 bd 00 	lds	r24, 0x00BD
    1152:	88 23       	and	r24, r24
    1154:	b9 f7       	brne	.-18     	; 0x1144 <I2CTWI_transmit3Bytes+0x12>
	I2CTWI_delay();
    1156:	0e 94 d0 06 	call	0xda0	; 0xda0 <I2CTWI_delay>
	TWI_msgSize = 4;
    115a:	84 e0       	ldi	r24, 0x04	; 4
    115c:	80 93 be 00 	sts	0x00BE, r24
	I2CTWI_buf[0] = targetAdr;
    1160:	10 93 bf 00 	sts	0x00BF, r17
	I2CTWI_buf[1] = data1;
    1164:	00 93 c0 00 	sts	0x00C0, r16
	I2CTWI_buf[2] = data2;
    1168:	f0 92 c1 00 	sts	0x00C1, r15
	I2CTWI_buf[3] = data3;
    116c:	e0 92 c2 00 	sts	0x00C2, r14
	TWI_statusReg.all = 0;
    1170:	10 92 b6 00 	sts	0x00B6, r1
	TWCR = (1<<TWEN)|(1<<TWIE)|(1<<TWINT)|(0<<TWEA)|(1<<TWSTA)|(0<<TWSTO);
    1174:	85 ea       	ldi	r24, 0xA5	; 165
    1176:	86 bf       	out	0x36, r24	; 54
}
    1178:	1f 91       	pop	r17
    117a:	0f 91       	pop	r16
    117c:	ff 90       	pop	r15
    117e:	ef 90       	pop	r14
    1180:	08 95       	ret

00001182 <I2CTWI_transmit4Bytes>:

/**
 * Transmits 4 Bytes to the slave.
 */
void I2CTWI_transmit4Bytes(uint8_t targetAdr, uint8_t data1, uint8_t data2, uint8_t data3, uint8_t data4)
{
    1182:	df 92       	push	r13
    1184:	ef 92       	push	r14
    1186:	ff 92       	push	r15
    1188:	0f 93       	push	r16
    118a:	1f 93       	push	r17
    118c:	18 2f       	mov	r17, r24
    118e:	f6 2e       	mov	r15, r22
    1190:	e4 2e       	mov	r14, r20
    1192:	d2 2e       	mov	r13, r18
	while(I2CTWI_isBusy() || TWI_operation != I2CTWI_NO_OPERATION) task_I2CTWI();
    1194:	02 c0       	rjmp	.+4      	; 0x119a <I2CTWI_transmit4Bytes+0x18>
    1196:	0e 94 fb 06 	call	0xdf6	; 0xdf6 <task_I2CTWI>
    119a:	06 b6       	in	r0, 0x36	; 54
    119c:	00 fc       	sbrc	r0, 0
    119e:	fb cf       	rjmp	.-10     	; 0x1196 <I2CTWI_transmit4Bytes+0x14>
    11a0:	80 91 bd 00 	lds	r24, 0x00BD
    11a4:	88 23       	and	r24, r24
    11a6:	b9 f7       	brne	.-18     	; 0x1196 <I2CTWI_transmit4Bytes+0x14>
	I2CTWI_delay();
    11a8:	0e 94 d0 06 	call	0xda0	; 0xda0 <I2CTWI_delay>
	TWI_msgSize = 5;
    11ac:	85 e0       	ldi	r24, 0x05	; 5
    11ae:	80 93 be 00 	sts	0x00BE, r24
	I2CTWI_buf[0] = targetAdr;
    11b2:	10 93 bf 00 	sts	0x00BF, r17
	I2CTWI_buf[1] = data1;
    11b6:	f0 92 c0 00 	sts	0x00C0, r15
	I2CTWI_buf[2] = data2;
    11ba:	e0 92 c1 00 	sts	0x00C1, r14
	I2CTWI_buf[3] = data3;
    11be:	d0 92 c2 00 	sts	0x00C2, r13
	I2CTWI_buf[4] = data4;
    11c2:	00 93 c3 00 	sts	0x00C3, r16
	TWI_statusReg.all = 0;
    11c6:	10 92 b6 00 	sts	0x00B6, r1
	TWCR = (1<<TWEN)|(1<<TWIE)|(1<<TWINT)|(0<<TWEA)|(1<<TWSTA)|(0<<TWSTO);
    11ca:	85 ea       	ldi	r24, 0xA5	; 165
    11cc:	86 bf       	out	0x36, r24	; 54
}
    11ce:	1f 91       	pop	r17
    11d0:	0f 91       	pop	r16
    11d2:	ff 90       	pop	r15
    11d4:	ef 90       	pop	r14
    11d6:	df 90       	pop	r13
    11d8:	08 95       	ret

000011da <I2CTWI_transmitBytes>:
/**
 * Transmits "numberOfBytes" Bytes to the Slave device. The Bytes need to be
 * in the Buffer "msg". Otherwise it is just the same as the other transmit functions.
 */
void I2CTWI_transmitBytes(uint8_t targetAdr, uint8_t *msg, uint8_t numberOfBytes)
{
    11da:	ef 92       	push	r14
    11dc:	ff 92       	push	r15
    11de:	0f 93       	push	r16
    11e0:	1f 93       	push	r17
    11e2:	18 2f       	mov	r17, r24
    11e4:	06 2f       	mov	r16, r22
    11e6:	f7 2e       	mov	r15, r23
    11e8:	e4 2e       	mov	r14, r20
	while(I2CTWI_isBusy() || TWI_operation != I2CTWI_NO_OPERATION) task_I2CTWI();
    11ea:	02 c0       	rjmp	.+4      	; 0x11f0 <I2CTWI_transmitBytes+0x16>
    11ec:	0e 94 fb 06 	call	0xdf6	; 0xdf6 <task_I2CTWI>
    11f0:	06 b6       	in	r0, 0x36	; 54
    11f2:	00 fc       	sbrc	r0, 0
    11f4:	fb cf       	rjmp	.-10     	; 0x11ec <I2CTWI_transmitBytes+0x12>
    11f6:	80 91 bd 00 	lds	r24, 0x00BD
    11fa:	88 23       	and	r24, r24
    11fc:	b9 f7       	brne	.-18     	; 0x11ec <I2CTWI_transmitBytes+0x12>
	I2CTWI_delay();
    11fe:	0e 94 d0 06 	call	0xda0	; 0xda0 <I2CTWI_delay>
	numberOfBytes++; 
    1202:	e3 94       	inc	r14
	TWI_msgSize = numberOfBytes;
    1204:	e0 92 be 00 	sts	0x00BE, r14
	I2CTWI_buf[0]  = targetAdr;
    1208:	10 93 bf 00 	sts	0x00BF, r17
    120c:	80 2f       	mov	r24, r16
    120e:	9f 2d       	mov	r25, r15
    1210:	dc 01       	movw	r26, r24
    1212:	e0 ec       	ldi	r30, 0xC0	; 192
    1214:	f0 e0       	ldi	r31, 0x00	; 0

/**
 * Transmits "numberOfBytes" Bytes to the Slave device. The Bytes need to be
 * in the Buffer "msg". Otherwise it is just the same as the other transmit functions.
 */
void I2CTWI_transmitBytes(uint8_t targetAdr, uint8_t *msg, uint8_t numberOfBytes)
    1216:	4e 2d       	mov	r20, r14
    1218:	50 e0       	ldi	r21, 0x00	; 0
    121a:	4e 0f       	add	r20, r30
    121c:	5f 1f       	adc	r21, r31
	I2CTWI_delay();
	numberOfBytes++; 
	TWI_msgSize = numberOfBytes;
	I2CTWI_buf[0]  = targetAdr;
	uint8_t i = 0;
	for(; i < numberOfBytes; i++)
    121e:	02 c0       	rjmp	.+4      	; 0x1224 <I2CTWI_transmitBytes+0x4a>
		I2CTWI_buf[i+1] = msg[i];
    1220:	8d 91       	ld	r24, X+
    1222:	81 93       	st	Z+, r24
	I2CTWI_delay();
	numberOfBytes++; 
	TWI_msgSize = numberOfBytes;
	I2CTWI_buf[0]  = targetAdr;
	uint8_t i = 0;
	for(; i < numberOfBytes; i++)
    1224:	e4 17       	cp	r30, r20
    1226:	f5 07       	cpc	r31, r21
    1228:	d9 f7       	brne	.-10     	; 0x1220 <I2CTWI_transmitBytes+0x46>
		I2CTWI_buf[i+1] = msg[i];
	TWI_statusReg.all = 0;
    122a:	10 92 b6 00 	sts	0x00B6, r1
	TWCR = (1<<TWEN)|(1<<TWIE)|(1<<TWINT)|(0<<TWEA)|(1<<TWSTA)|(0<<TWSTO);
    122e:	85 ea       	ldi	r24, 0xA5	; 165
    1230:	86 bf       	out	0x36, r24	; 54
}
    1232:	1f 91       	pop	r17
    1234:	0f 91       	pop	r16
    1236:	ff 90       	pop	r15
    1238:	ef 90       	pop	r14
    123a:	08 95       	ret

0000123c <__vector_19>:

/*
 * TWI ISR
 */
ISR (TWI_vect)
{
    123c:	1f 92       	push	r1
    123e:	0f 92       	push	r0
    1240:	0f b6       	in	r0, 0x3f	; 63
    1242:	0f 92       	push	r0
    1244:	11 24       	eor	r1, r1
    1246:	2f 93       	push	r18
    1248:	3f 93       	push	r19
    124a:	8f 93       	push	r24
    124c:	9f 93       	push	r25
    124e:	ef 93       	push	r30
    1250:	ff 93       	push	r31
	static uint8_t TWI_bufPos = 0;
	switch (TWSR)
    1252:	81 b1       	in	r24, 0x01	; 1
    1254:	88 32       	cpi	r24, 0x28	; 40
    1256:	c9 f0       	breq	.+50     	; 0x128a <__vector_19+0x4e>
    1258:	89 32       	cpi	r24, 0x29	; 41
    125a:	40 f4       	brcc	.+16     	; 0x126c <__vector_19+0x30>
    125c:	80 31       	cpi	r24, 0x10	; 16
    125e:	99 f0       	breq	.+38     	; 0x1286 <__vector_19+0x4a>
    1260:	88 31       	cpi	r24, 0x18	; 24
    1262:	99 f0       	breq	.+38     	; 0x128a <__vector_19+0x4e>
    1264:	88 30       	cpi	r24, 0x08	; 8
    1266:	09 f0       	breq	.+2      	; 0x126a <__vector_19+0x2e>
    1268:	4b c0       	rjmp	.+150    	; 0x1300 <__vector_19+0xc4>
    126a:	0d c0       	rjmp	.+26     	; 0x1286 <__vector_19+0x4a>
    126c:	80 34       	cpi	r24, 0x40	; 64
    126e:	41 f1       	breq	.+80     	; 0x12c0 <__vector_19+0x84>
    1270:	81 34       	cpi	r24, 0x41	; 65
    1272:	20 f4       	brcc	.+8      	; 0x127c <__vector_19+0x40>
    1274:	88 33       	cpi	r24, 0x38	; 56
    1276:	09 f0       	breq	.+2      	; 0x127a <__vector_19+0x3e>
    1278:	43 c0       	rjmp	.+134    	; 0x1300 <__vector_19+0xc4>
    127a:	3d c0       	rjmp	.+122    	; 0x12f6 <__vector_19+0xba>
    127c:	80 35       	cpi	r24, 0x50	; 80
    127e:	a9 f0       	breq	.+42     	; 0x12aa <__vector_19+0x6e>
    1280:	88 35       	cpi	r24, 0x58	; 88
    1282:	f1 f5       	brne	.+124    	; 0x1300 <__vector_19+0xc4>
    1284:	2b c0       	rjmp	.+86     	; 0x12dc <__vector_19+0xa0>
	{
		case TWI_START:             // START has been transmitted  
		case TWI_REP_START:         // Repeated START has been transmitted
		  TWI_bufPos = 0;           // Set buffer pointer to the TWI Address location
    1286:	10 92 ff 00 	sts	0x00FF, r1
		case TWI_MTX_ADR_ACK:       // SLA+W has been transmitted and ACK received
		case TWI_MTX_DATA_ACK:      // Data byte has been transmitted and ACK received
		  if (TWI_bufPos < TWI_msgSize) {
    128a:	80 91 ff 00 	lds	r24, 0x00FF
    128e:	90 91 be 00 	lds	r25, 0x00BE
    1292:	89 17       	cp	r24, r25
    1294:	50 f5       	brcc	.+84     	; 0x12ea <__vector_19+0xae>
			TWDR = I2CTWI_buf[TWI_bufPos++];
    1296:	e8 2f       	mov	r30, r24
    1298:	f0 e0       	ldi	r31, 0x00	; 0
    129a:	e1 54       	subi	r30, 0x41	; 65
    129c:	ff 4f       	sbci	r31, 0xFF	; 255
    129e:	90 81       	ld	r25, Z
    12a0:	93 b9       	out	0x03, r25	; 3
    12a2:	8f 5f       	subi	r24, 0xFF	; 255
    12a4:	80 93 ff 00 	sts	0x00FF, r24
    12a8:	17 c0       	rjmp	.+46     	; 0x12d8 <__vector_19+0x9c>
				   (0<<TWEA)|(0<<TWSTA)|(1<<TWSTO)|           // Initiate a STOP condition.
				   (0<<TWWC);                                 //
		  }
		  break;
		case TWI_MRX_DATA_ACK:      // Data byte has been received and ACK transmitted
		  I2CTWI_recbuf[TWI_bufPos++] = TWDR;
    12aa:	80 91 ff 00 	lds	r24, 0x00FF
    12ae:	93 b1       	in	r25, 0x03	; 3
    12b0:	e8 2f       	mov	r30, r24
    12b2:	f0 e0       	ldi	r31, 0x00	; 0
    12b4:	e1 53       	subi	r30, 0x31	; 49
    12b6:	ff 4f       	sbci	r31, 0xFF	; 255
    12b8:	90 83       	st	Z, r25
    12ba:	8f 5f       	subi	r24, 0xFF	; 255
    12bc:	80 93 ff 00 	sts	0x00FF, r24
		case TWI_MRX_ADR_ACK:       // SLA+R has been transmitted and ACK received
		  if (TWI_bufPos < (TWI_msgSize-1) ) {                 // Detect the last byte to NACK it.
    12c0:	20 91 ff 00 	lds	r18, 0x00FF
    12c4:	30 e0       	ldi	r19, 0x00	; 0
    12c6:	80 91 be 00 	lds	r24, 0x00BE
    12ca:	90 e0       	ldi	r25, 0x00	; 0
    12cc:	01 97       	sbiw	r24, 0x01	; 1
    12ce:	28 17       	cp	r18, r24
    12d0:	39 07       	cpc	r19, r25
    12d2:	14 f4       	brge	.+4      	; 0x12d8 <__vector_19+0x9c>
			TWCR = (1<<TWEN)|                                 // TWI Interface enabled
    12d4:	85 ec       	ldi	r24, 0xC5	; 197
    12d6:	18 c0       	rjmp	.+48     	; 0x1308 <__vector_19+0xcc>
				   (1<<TWIE)|(1<<TWINT)|                      // Enable TWI Interupt and clear the flag to read next byte
				   (1<<TWEA)|(0<<TWSTA)|(0<<TWSTO)|           // Send ACK after reception
				   (0<<TWWC);                                 //  
		  } else {                   // Send NACK after next reception
			TWCR = (1<<TWEN)|                                 // TWI Interface enabled
    12d8:	85 e8       	ldi	r24, 0x85	; 133
    12da:	16 c0       	rjmp	.+44     	; 0x1308 <__vector_19+0xcc>
				   (0<<TWEA)|(0<<TWSTA)|(0<<TWSTO)|           // Send NACK after reception
				   (0<<TWWC);                                 // 
		  }    
		  break; 
		case TWI_MRX_DATA_NACK:     // Data byte has been received and NACK transmitted
		  I2CTWI_recbuf[TWI_bufPos] = TWDR;
    12dc:	83 b1       	in	r24, 0x03	; 3
    12de:	e0 91 ff 00 	lds	r30, 0x00FF
    12e2:	f0 e0       	ldi	r31, 0x00	; 0
    12e4:	e1 53       	subi	r30, 0x31	; 49
    12e6:	ff 4f       	sbci	r31, 0xFF	; 255
    12e8:	80 83       	st	Z, r24
		  TWI_statusReg.lastTransOK = 1;                 	// Set status bits to completed successfully. 		 
    12ea:	80 91 b6 00 	lds	r24, 0x00B6
    12ee:	81 60       	ori	r24, 0x01	; 1
    12f0:	80 93 b6 00 	sts	0x00B6, r24
    12f4:	08 c0       	rjmp	.+16     	; 0x1306 <__vector_19+0xca>
				 (0<<TWIE)|(1<<TWINT)|                      // Disable TWI Interrupt and clear the flag
				 (0<<TWEA)|(0<<TWSTA)|(1<<TWSTO)|           // Initiate a STOP condition.
				 (0<<TWWC);                                 //
		  break;      
		case TWI_ARB_LOST:          // Arbitration lost
		  TWI_TWSR_state = TWSR;  							// Store TWSR 	
    12f6:	81 b1       	in	r24, 0x01	; 1
    12f8:	80 93 b7 00 	sts	0x00B7, r24
		  TWCR = (1<<TWEN)|                                 // TWI Interface enabled
    12fc:	85 ea       	ldi	r24, 0xA5	; 165
    12fe:	04 c0       	rjmp	.+8      	; 0x1308 <__vector_19+0xcc>
				 (1<<TWIE)|(1<<TWINT)|                      // Enable TWI Interupt and clear the flag
				 (0<<TWEA)|(1<<TWSTA)|(0<<TWSTO)|           // Initiate a (RE)START condition.
				 (0<<TWWC);                                 //
		  break;
		default:     
		  TWI_TWSR_state = TWSR;                     		// Store TWSR 					
    1300:	81 b1       	in	r24, 0x01	; 1
    1302:	80 93 b7 00 	sts	0x00B7, r24
		  TWCR = (1<<TWEN)|                                 // Enable TWI-interface and release TWI pins
    1306:	84 e9       	ldi	r24, 0x94	; 148
    1308:	86 bf       	out	0x36, r24	; 54
				 (0<<TWIE)|(1<<TWINT)|                      // Disable Interupt
				 (0<<TWEA)|(0<<TWSTA)|(1<<TWSTO)|           // No Signal requests
				 (0<<TWWC); 
		break;
	}
}
    130a:	ff 91       	pop	r31
    130c:	ef 91       	pop	r30
    130e:	9f 91       	pop	r25
    1310:	8f 91       	pop	r24
    1312:	3f 91       	pop	r19
    1314:	2f 91       	pop	r18
    1316:	0f 90       	pop	r0
    1318:	0f be       	out	0x3f, r0	; 63
    131a:	0f 90       	pop	r0
    131c:	1f 90       	pop	r1
    131e:	18 95       	reti

00001320 <BUMPERS_stateChanged_DUMMY>:
uint8_t bumper_right;

// -------------------------------
// Bumpers State changed handler:

void BUMPERS_stateChanged_DUMMY(void){}
    1320:	08 95       	ret

00001322 <MOTIONCONTROL_stateChanged_DUMMY>:
// MotionControl:

// -------------------------------
// MotionControl state changed handler:

void MOTIONCONTROL_stateChanged_DUMMY(void){}
    1322:	08 95       	ret

00001324 <IRCOMM_RC5dataReady_DUMMY>:
// RC5:

// -------------------------------
// RC5 Data reception Handler:

void IRCOMM_RC5dataReady_DUMMY(RC5data_t rc5data){}
    1324:	08 95       	ret

00001326 <ACS_stateChanged_DUMMY>:
uint8_t obstacle_right;

// -------------------------------
// ACS State changed handler:

void ACS_stateChanged_DUMMY(void){}
    1326:	08 95       	ret

00001328 <BATTERY_lowVoltage_DUMMY>:
// Battery Voltage Sensor:

// -------------------------------
// Low Battery Voltage Event Handler:

void BATTERY_lowVoltage_DUMMY(uint8_t isVoltageLow){}
    1328:	08 95       	ret

0000132a <WDT_request_DUMMY>:
// WDT:

// -------------------------------
// WDT Request Event Handler:

void WDT_request_DUMMY(void){}
    132a:	08 95       	ret

0000132c <BUMPERS_setStateChangedHandler>:
 * Use this function to set the Bumpers state change handler. 
 * 
 */
void BUMPERS_setStateChangedHandler(void (*bumperHandler)(void)) 
{
	BUMPERS_stateChangedHandler = bumperHandler;
    132c:	90 93 6d 00 	sts	0x006D, r25
    1330:	80 93 6c 00 	sts	0x006C, r24
}
    1334:	08 95       	ret

00001336 <MOTIONCONTROL_setStateChangedHandler>:
void MOTIONCONTROL_stateChanged_DUMMY(void){}
static void (*MOTIONCONTROL_stateChangedHandler)(void) = MOTIONCONTROL_stateChanged_DUMMY;

void MOTIONCONTROL_setStateChangedHandler(void (*motionControlHandler)(void)) 
{
	MOTIONCONTROL_stateChangedHandler = motionControlHandler;
    1336:	90 93 75 00 	sts	0x0075, r25
    133a:	80 93 74 00 	sts	0x0074, r24
}
    133e:	08 95       	ret

00001340 <IRCOMM_setRC5DataReadyHandler>:
void IRCOMM_RC5dataReady_DUMMY(RC5data_t rc5data){}
static void (*IRCOMM_RC5dataReadyHandler)(RC5data_t rc5data) = IRCOMM_RC5dataReady_DUMMY;

void IRCOMM_setRC5DataReadyHandler(void (*rc5Handler)(RC5data_t rc5data)) 
{
	IRCOMM_RC5dataReadyHandler = rc5Handler;
    1340:	90 93 6f 00 	sts	0x006F, r25
    1344:	80 93 6e 00 	sts	0x006E, r24
}
    1348:	08 95       	ret

0000134a <ACS_setStateChangedHandler>:
void ACS_stateChanged_DUMMY(void){}
static void (*ACS_stateChangedHandler)(void) = ACS_stateChanged_DUMMY;

void ACS_setStateChangedHandler(void (*acsHandler)(void)) 
{
	ACS_stateChangedHandler = acsHandler;
    134a:	90 93 6b 00 	sts	0x006B, r25
    134e:	80 93 6a 00 	sts	0x006A, r24
}
    1352:	08 95       	ret

00001354 <BATTERY_setLowVoltageHandler>:
void BATTERY_lowVoltage_DUMMY(uint8_t isVoltageLow){}
static void (*BATTERY_lowVoltageHandler)(uint8_t) = BATTERY_lowVoltage_DUMMY;

void BATTERY_setLowVoltageHandler(void (*lowVoltageHandler)(uint8_t)) 
{
	BATTERY_lowVoltageHandler = lowVoltageHandler;
    1354:	90 93 71 00 	sts	0x0071, r25
    1358:	80 93 70 00 	sts	0x0070, r24
}
    135c:	08 95       	ret

0000135e <WDT_setRequestHandler>:
void WDT_request_DUMMY(void){}
static void (*WDT_requestHandler)(void) = WDT_request_DUMMY;

void WDT_setRequestHandler(void (*requestHandler)(void)) 
{
	WDT_requestHandler = requestHandler;
    135e:	90 93 73 00 	sts	0x0073, r25
    1362:	80 93 72 00 	sts	0x0072, r24
}
    1366:	08 95       	ret

00001368 <getAllSensors>:
 * Of course this function needs some time to read all these
 * 24 registers via the I2C Bus. 
 */
void getAllSensors(void)
{
	I2CTWI_readRegisters(I2C_RP6_BASE_ADR, I2C_REG_POWER_LEFT, sensorBuf, 24);
    1368:	8a e0       	ldi	r24, 0x0A	; 10
    136a:	63 e0       	ldi	r22, 0x03	; 3
    136c:	42 e3       	ldi	r20, 0x32	; 50
    136e:	55 e0       	ldi	r21, 0x05	; 5
    1370:	28 e1       	ldi	r18, 0x18	; 24
    1372:	0e 94 b1 07 	call	0xf62	; 0xf62 <I2CTWI_readRegisters>
	mleft_power = sensorBuf[0];
    1376:	80 91 32 05 	lds	r24, 0x0532
    137a:	80 93 56 05 	sts	0x0556, r24
	mright_power = sensorBuf[1];
    137e:	80 91 33 05 	lds	r24, 0x0533
    1382:	80 93 5c 05 	sts	0x055C, r24
	mleft_speed = sensorBuf[2];
    1386:	80 91 34 05 	lds	r24, 0x0534
    138a:	80 93 57 05 	sts	0x0557, r24
	mright_speed = sensorBuf[3];
    138e:	80 91 35 05 	lds	r24, 0x0535
    1392:	80 93 69 05 	sts	0x0569, r24
	mleft_des_speed = sensorBuf[4];
    1396:	80 91 36 05 	lds	r24, 0x0536
    139a:	80 93 4b 05 	sts	0x054B, r24
	mright_des_speed = sensorBuf[5];
    139e:	80 91 37 05 	lds	r24, 0x0537
    13a2:	80 93 4a 05 	sts	0x054A, r24
	mleft_dist = sensorBuf[6] + (sensorBuf[7]<<8);
    13a6:	90 91 39 05 	lds	r25, 0x0539
    13aa:	80 e0       	ldi	r24, 0x00	; 0
    13ac:	20 91 38 05 	lds	r18, 0x0538
    13b0:	82 0f       	add	r24, r18
    13b2:	91 1d       	adc	r25, r1
    13b4:	90 93 68 05 	sts	0x0568, r25
    13b8:	80 93 67 05 	sts	0x0567, r24
	mright_dist = sensorBuf[8] + (sensorBuf[9]<<8);
    13bc:	90 91 3b 05 	lds	r25, 0x053B
    13c0:	80 e0       	ldi	r24, 0x00	; 0
    13c2:	20 91 3a 05 	lds	r18, 0x053A
    13c6:	82 0f       	add	r24, r18
    13c8:	91 1d       	adc	r25, r1
    13ca:	90 93 62 05 	sts	0x0562, r25
    13ce:	80 93 61 05 	sts	0x0561, r24
	adcLSL = sensorBuf[10] + (sensorBuf[11]<<8);
    13d2:	90 91 3d 05 	lds	r25, 0x053D
    13d6:	80 e0       	ldi	r24, 0x00	; 0
    13d8:	20 91 3c 05 	lds	r18, 0x053C
    13dc:	82 0f       	add	r24, r18
    13de:	91 1d       	adc	r25, r1
    13e0:	90 93 5b 05 	sts	0x055B, r25
    13e4:	80 93 5a 05 	sts	0x055A, r24
	adcLSR = sensorBuf[12] + (sensorBuf[13]<<8);
    13e8:	90 91 3f 05 	lds	r25, 0x053F
    13ec:	80 e0       	ldi	r24, 0x00	; 0
    13ee:	20 91 3e 05 	lds	r18, 0x053E
    13f2:	82 0f       	add	r24, r18
    13f4:	91 1d       	adc	r25, r1
    13f6:	90 93 5f 05 	sts	0x055F, r25
    13fa:	80 93 5e 05 	sts	0x055E, r24
	adcMotorCurrentLeft = sensorBuf[14] + (sensorBuf[15]<<8);
    13fe:	90 91 41 05 	lds	r25, 0x0541
    1402:	80 e0       	ldi	r24, 0x00	; 0
    1404:	20 91 40 05 	lds	r18, 0x0540
    1408:	82 0f       	add	r24, r18
    140a:	91 1d       	adc	r25, r1
    140c:	90 93 6e 05 	sts	0x056E, r25
    1410:	80 93 6d 05 	sts	0x056D, r24
	adcMotorCurrentRight = sensorBuf[16] + (sensorBuf[17]<<8);
    1414:	90 91 43 05 	lds	r25, 0x0543
    1418:	80 e0       	ldi	r24, 0x00	; 0
    141a:	20 91 42 05 	lds	r18, 0x0542
    141e:	82 0f       	add	r24, r18
    1420:	91 1d       	adc	r25, r1
    1422:	90 93 66 05 	sts	0x0566, r25
    1426:	80 93 65 05 	sts	0x0565, r24
	adcBat = sensorBuf[18] + (sensorBuf[19]<<8);
    142a:	90 91 45 05 	lds	r25, 0x0545
    142e:	80 e0       	ldi	r24, 0x00	; 0
    1430:	20 91 44 05 	lds	r18, 0x0544
    1434:	82 0f       	add	r24, r18
    1436:	91 1d       	adc	r25, r1
    1438:	90 93 6c 05 	sts	0x056C, r25
    143c:	80 93 6b 05 	sts	0x056B, r24
	adc0 = sensorBuf[20] + (sensorBuf[21]<<8);
    1440:	90 91 47 05 	lds	r25, 0x0547
    1444:	80 e0       	ldi	r24, 0x00	; 0
    1446:	20 91 46 05 	lds	r18, 0x0546
    144a:	82 0f       	add	r24, r18
    144c:	91 1d       	adc	r25, r1
    144e:	90 93 64 05 	sts	0x0564, r25
    1452:	80 93 63 05 	sts	0x0563, r24
	adc1 = sensorBuf[22] + (sensorBuf[23]<<8);
    1456:	90 91 49 05 	lds	r25, 0x0549
    145a:	80 e0       	ldi	r24, 0x00	; 0
    145c:	20 91 48 05 	lds	r18, 0x0548
    1460:	82 0f       	add	r24, r18
    1462:	91 1d       	adc	r25, r1
    1464:	90 93 59 05 	sts	0x0559, r25
    1468:	80 93 58 05 	sts	0x0558, r24
}
    146c:	08 95       	ret

0000146e <task_checkINT0>:
 * They are checked in the requested data ready handler which should call
 * the function checkRP6Status below. 
 */
void task_checkINT0(void)
{
	if(!block && (PIND & EINT1)) 
    146e:	80 91 00 01 	lds	r24, 0x0100
    1472:	88 23       	and	r24, r24
    1474:	59 f4       	brne	.+22     	; 0x148c <task_checkINT0+0x1e>
    1476:	82 9b       	sbis	0x10, 2	; 16
    1478:	09 c0       	rjmp	.+18     	; 0x148c <task_checkINT0+0x1e>
	{
		block = true; // Block further requests and wait until 
    147a:	81 e0       	ldi	r24, 0x01	; 1
    147c:	80 93 00 01 	sts	0x0100, r24
					  // this request has been processed.
		I2CTWI_requestRegisterFromDevice(I2C_RP6_BASE_ADR, INT0_STATUS_CHECK, 0, 3);
    1480:	8a e0       	ldi	r24, 0x0A	; 10
    1482:	60 e0       	ldi	r22, 0x00	; 0
    1484:	40 e0       	ldi	r20, 0x00	; 0
    1486:	23 e0       	ldi	r18, 0x03	; 3
    1488:	0e 94 5e 07 	call	0xebc	; 0xebc <I2CTWI_requestRegisterFromDevice>
    148c:	08 95       	ret

0000148e <checkRP6Status>:
 * It returns true if it was a INT0 request and false otherwise.
 * This way you can check if it was a request that you initiated or a 
 * request initiated in the library...
 */
uint8_t checkRP6Status(uint8_t dataRequestID)
{
    148e:	0f 93       	push	r16
    1490:	1f 93       	push	r17
    1492:	df 93       	push	r29
    1494:	cf 93       	push	r28
    1496:	00 d0       	rcall	.+0      	; 0x1498 <checkRP6Status+0xa>
    1498:	cd b7       	in	r28, 0x3d	; 61
    149a:	de b7       	in	r29, 0x3e	; 62
	if(dataRequestID == INT0_STATUS_CHECK) 
    149c:	88 23       	and	r24, r24
    149e:	09 f0       	breq	.+2      	; 0x14a2 <checkRP6Status+0x14>
    14a0:	92 c0       	rjmp	.+292    	; 0x15c6 <checkRP6Status+0x138>
	{            
                         
		// get received data: 
		I2CTWI_getReceivedData(messageBuf, 3);
    14a2:	8f e6       	ldi	r24, 0x6F	; 111
    14a4:	95 e0       	ldi	r25, 0x05	; 5
    14a6:	63 e0       	ldi	r22, 0x03	; 3
    14a8:	0e 94 e1 06 	call	0xdc2	; 0xdc2 <I2CTWI_getReceivedData>
		
		// We want to check if the ACS status bits have changed, so we XOR 
		// ('^' is eXclusive OR operator) them with old 
		// value for comparison and later mask them in the if conditions below...
		uint8_t compare = messageBuf[0] ^ interrupt_status.byte;
    14ac:	20 91 6f 05 	lds	r18, 0x056F
    14b0:	00 91 0a 01 	lds	r16, 0x010A
    14b4:	02 27       	eor	r16, r18
		interrupt_status.byte = messageBuf[0]; // Update local register
    14b6:	20 93 0a 01 	sts	0x010A, r18

		// ------------------------------------
		// First, we check if the ACS status bits have changed, if not
		// we can just ignore the change as it was something else
		// and we only check the ACS bits in this example...
		if(compare & MASK_ACS) 
    14ba:	10 e0       	ldi	r17, 0x00	; 0
    14bc:	c8 01       	movw	r24, r16
    14be:	80 76       	andi	r24, 0x60	; 96
    14c0:	90 70       	andi	r25, 0x00	; 0
    14c2:	00 97       	sbiw	r24, 0x00	; 0
    14c4:	89 f0       	breq	.+34     	; 0x14e8 <checkRP6Status+0x5a>
		{
			obstacle_left = interrupt_status.obstacleLeft;
    14c6:	82 2f       	mov	r24, r18
    14c8:	82 95       	swap	r24
    14ca:	86 95       	lsr	r24
    14cc:	81 70       	andi	r24, 0x01	; 1
    14ce:	80 93 5d 05 	sts	0x055D, r24
			obstacle_right = interrupt_status.obstacleRight;
    14d2:	22 95       	swap	r18
    14d4:	26 95       	lsr	r18
    14d6:	26 95       	lsr	r18
    14d8:	21 70       	andi	r18, 0x01	; 1
    14da:	20 93 60 05 	sts	0x0560, r18
			ACS_stateChangedHandler();
    14de:	e0 91 6a 00 	lds	r30, 0x006A
    14e2:	f0 91 6b 00 	lds	r31, 0x006B
    14e6:	09 95       	icall
		}
		
		// ------------------------------------
		// Check if Bumpers status has changed:
		if(compare & MASK_BUMPER) 
    14e8:	c8 01       	movw	r24, r16
    14ea:	86 70       	andi	r24, 0x06	; 6
    14ec:	90 70       	andi	r25, 0x00	; 0
    14ee:	00 97       	sbiw	r24, 0x00	; 0
    14f0:	89 f0       	breq	.+34     	; 0x1514 <checkRP6Status+0x86>
		{
			bumper_left = interrupt_status.bumperLeft;
    14f2:	80 91 0a 01 	lds	r24, 0x010A
    14f6:	98 2f       	mov	r25, r24
    14f8:	96 95       	lsr	r25
    14fa:	91 70       	andi	r25, 0x01	; 1
    14fc:	90 93 31 05 	sts	0x0531, r25
			bumper_right = interrupt_status.bumperRight;
    1500:	86 95       	lsr	r24
    1502:	86 95       	lsr	r24
    1504:	81 70       	andi	r24, 0x01	; 1
    1506:	80 93 6a 05 	sts	0x056A, r24
			BUMPERS_stateChangedHandler();
    150a:	e0 91 6c 00 	lds	r30, 0x006C
    150e:	f0 91 6d 00 	lds	r31, 0x006D
    1512:	09 95       	icall
		}

		// ------------------------------------
		// Check if there was a RC5 Reception:
		uint8_t readBuf[2];
		if(compare & MASK_RC5) 
    1514:	03 ff       	sbrs	r16, 3
    1516:	1c c0       	rjmp	.+56     	; 0x1550 <checkRP6Status+0xc2>
		{
			I2CTWI_transmitByte(I2C_RP6_BASE_ADR,I2C_REG_RC5_ADR);
    1518:	8a e0       	ldi	r24, 0x0A	; 10
    151a:	6b e1       	ldi	r22, 0x1B	; 27
    151c:	0e 94 58 08 	call	0x10b0	; 0x10b0 <I2CTWI_transmitByte>
			I2CTWI_readBytes(I2C_RP6_BASE_ADR, readBuf, 2);
    1520:	8a e0       	ldi	r24, 0x0A	; 10
    1522:	be 01       	movw	r22, r28
    1524:	6f 5f       	subi	r22, 0xFF	; 255
    1526:	7f 4f       	sbci	r23, 0xFF	; 255
    1528:	42 e0       	ldi	r20, 0x02	; 2
    152a:	0e 94 f3 07 	call	0xfe6	; 0xfe6 <I2CTWI_readBytes>
			RC5data_t tmp;
			tmp.data = (readBuf[0] << 6) | (readBuf[1]);
			IRCOMM_RC5dataReadyHandler(tmp);
    152e:	e0 91 6e 00 	lds	r30, 0x006E
    1532:	f0 91 6f 00 	lds	r31, 0x006F
		if(compare & MASK_RC5) 
		{
			I2CTWI_transmitByte(I2C_RP6_BASE_ADR,I2C_REG_RC5_ADR);
			I2CTWI_readBytes(I2C_RP6_BASE_ADR, readBuf, 2);
			RC5data_t tmp;
			tmp.data = (readBuf[0] << 6) | (readBuf[1]);
    1536:	29 81       	ldd	r18, Y+1	; 0x01
    1538:	30 e0       	ldi	r19, 0x00	; 0
    153a:	86 e0       	ldi	r24, 0x06	; 6
    153c:	22 0f       	add	r18, r18
    153e:	33 1f       	adc	r19, r19
    1540:	8a 95       	dec	r24
    1542:	e1 f7       	brne	.-8      	; 0x153c <checkRP6Status+0xae>
    1544:	8a 81       	ldd	r24, Y+2	; 0x02
    1546:	90 e0       	ldi	r25, 0x00	; 0
    1548:	28 2b       	or	r18, r24
    154a:	39 2b       	or	r19, r25
			IRCOMM_RC5dataReadyHandler(tmp);
    154c:	c9 01       	movw	r24, r18
    154e:	09 95       	icall
		}
		
		// ------------------------------------
		// Check for low Battery event:
		if(compare & MASK_BATLOW) 
    1550:	00 ff       	sbrs	r16, 0
    1552:	1d c0       	rjmp	.+58     	; 0x158e <checkRP6Status+0x100>
		{
			I2CTWI_transmitByte(I2C_RP6_BASE_ADR,I2C_REG_ADC_UBAT_L);
    1554:	8a e0       	ldi	r24, 0x0A	; 10
    1556:	65 e1       	ldi	r22, 0x15	; 21
    1558:	0e 94 58 08 	call	0x10b0	; 0x10b0 <I2CTWI_transmitByte>
			I2CTWI_readBytes(I2C_RP6_BASE_ADR, readBuf, 2);
    155c:	8a e0       	ldi	r24, 0x0A	; 10
    155e:	be 01       	movw	r22, r28
    1560:	6f 5f       	subi	r22, 0xFF	; 255
    1562:	7f 4f       	sbci	r23, 0xFF	; 255
    1564:	42 e0       	ldi	r20, 0x02	; 2
    1566:	0e 94 f3 07 	call	0xfe6	; 0xfe6 <I2CTWI_readBytes>
			adcBat = (readBuf[1] << 8) | (readBuf[0]);
    156a:	3a 81       	ldd	r19, Y+2	; 0x02
    156c:	20 e0       	ldi	r18, 0x00	; 0
    156e:	89 81       	ldd	r24, Y+1	; 0x01
    1570:	90 e0       	ldi	r25, 0x00	; 0
    1572:	82 2b       	or	r24, r18
    1574:	93 2b       	or	r25, r19
    1576:	90 93 6c 05 	sts	0x056C, r25
    157a:	80 93 6b 05 	sts	0x056B, r24
			BATTERY_lowVoltageHandler(interrupt_status.batLow);
    157e:	80 91 0a 01 	lds	r24, 0x010A
    1582:	e0 91 70 00 	lds	r30, 0x0070
    1586:	f0 91 71 00 	lds	r31, 0x0071
    158a:	81 70       	andi	r24, 0x01	; 1
    158c:	09 95       	icall
		}
		
		// ------------------------------------
		// Check for WDT request:
		status.byte = messageBuf[1];
    158e:	80 91 70 05 	lds	r24, 0x0570
    1592:	80 93 e6 04 	sts	0x04E6, r24
		if(status.wdtRequest)
    1596:	83 ff       	sbrs	r24, 3
    1598:	05 c0       	rjmp	.+10     	; 0x15a4 <checkRP6Status+0x116>
			WDT_requestHandler();
    159a:	e0 91 72 00 	lds	r30, 0x0072
    159e:	f0 91 73 00 	lds	r31, 0x0073
    15a2:	09 95       	icall
		
		// ------------------------------------
		// Update drive Status:
		drive_status.byte = messageBuf[2];
    15a4:	80 91 71 05 	lds	r24, 0x0571
    15a8:	80 93 f7 02 	sts	0x02F7, r24
		if(interrupt_status.driveSystemChange)
    15ac:	80 91 0a 01 	lds	r24, 0x010A
    15b0:	87 ff       	sbrs	r24, 7
    15b2:	05 c0       	rjmp	.+10     	; 0x15be <checkRP6Status+0x130>
		{
			MOTIONCONTROL_stateChangedHandler();
    15b4:	e0 91 74 00 	lds	r30, 0x0074
    15b8:	f0 91 75 00 	lds	r31, 0x0075
    15bc:	09 95       	icall
		}

		block = false; // clear block flag! 
    15be:	10 92 00 01 	sts	0x0100, r1
		return true; // It was an INT0 request --> return true;
    15c2:	81 e0       	ldi	r24, 0x01	; 1
    15c4:	01 c0       	rjmp	.+2      	; 0x15c8 <checkRP6Status+0x13a>
	}
	return false; // It was not an INT0 request --> return false
    15c6:	80 e0       	ldi	r24, 0x00	; 0
}
    15c8:	0f 90       	pop	r0
    15ca:	0f 90       	pop	r0
    15cc:	cf 91       	pop	r28
    15ce:	df 91       	pop	r29
    15d0:	1f 91       	pop	r17
    15d2:	0f 91       	pop	r16
    15d4:	08 95       	ret

000015d6 <waitForTransmitComplete>:
 * movement register gets updated via the I2C Bus and the function behaves like 
 * with the RP6Lib - especially the drive_status.movementComplete flag!
 */
void waitForTransmitComplete(void)
{
	while(I2CTWI_isBusy() || TWI_operation != I2CTWI_NO_OPERATION) task_I2CTWI();
    15d6:	02 c0       	rjmp	.+4      	; 0x15dc <waitForTransmitComplete+0x6>
    15d8:	0e 94 fb 06 	call	0xdf6	; 0xdf6 <task_I2CTWI>
    15dc:	06 b6       	in	r0, 0x36	; 54
    15de:	00 fc       	sbrc	r0, 0
    15e0:	fb cf       	rjmp	.-10     	; 0x15d8 <waitForTransmitComplete+0x2>
    15e2:	80 91 bd 00 	lds	r24, 0x00BD
    15e6:	88 23       	and	r24, r24
    15e8:	b9 f7       	brne	.-18     	; 0x15d8 <waitForTransmitComplete+0x2>
	mSleep(6);
    15ea:	86 e0       	ldi	r24, 0x06	; 6
    15ec:	90 e0       	ldi	r25, 0x00	; 0
    15ee:	0e 94 f4 03 	call	0x7e8	; 0x7e8 <mSleep>
	task_checkINT0();
    15f2:	0e 94 37 0a 	call	0x146e	; 0x146e <task_checkINT0>
	while(I2CTWI_isBusy() || TWI_operation != I2CTWI_NO_OPERATION) task_I2CTWI();
    15f6:	02 c0       	rjmp	.+4      	; 0x15fc <waitForTransmitComplete+0x26>
    15f8:	0e 94 fb 06 	call	0xdf6	; 0xdf6 <task_I2CTWI>
    15fc:	06 b6       	in	r0, 0x36	; 54
    15fe:	00 fc       	sbrc	r0, 0
    1600:	fb cf       	rjmp	.-10     	; 0x15f8 <waitForTransmitComplete+0x22>
    1602:	80 91 bd 00 	lds	r24, 0x00BD
    1606:	88 23       	and	r24, r24
    1608:	b9 f7       	brne	.-18     	; 0x15f8 <waitForTransmitComplete+0x22>
}
    160a:	08 95       	ret

0000160c <moveAtSpeed>:

/**
 * Move at speed function - just the same as with RP6Lib!
 */
void moveAtSpeed(uint8_t desired_speed_left, uint8_t desired_speed_right)
{
    160c:	0f 93       	push	r16
    160e:	28 2f       	mov	r18, r24
    1610:	06 2f       	mov	r16, r22
	I2CTWI_transmit4Bytes(I2C_RP6_BASE_ADR, 0, CMD_MOVE_AT_SPEED, desired_speed_left, desired_speed_right );
    1612:	8a e0       	ldi	r24, 0x0A	; 10
    1614:	60 e0       	ldi	r22, 0x00	; 0
    1616:	45 e0       	ldi	r20, 0x05	; 5
    1618:	0e 94 c1 08 	call	0x1182	; 0x1182 <I2CTWI_transmit4Bytes>
	while(I2CTWI_isBusy() || TWI_operation != I2CTWI_NO_OPERATION) task_I2CTWI();
    161c:	02 c0       	rjmp	.+4      	; 0x1622 <moveAtSpeed+0x16>
    161e:	0e 94 fb 06 	call	0xdf6	; 0xdf6 <task_I2CTWI>
    1622:	06 b6       	in	r0, 0x36	; 54
    1624:	00 fc       	sbrc	r0, 0
    1626:	fb cf       	rjmp	.-10     	; 0x161e <moveAtSpeed+0x12>
    1628:	80 91 bd 00 	lds	r24, 0x00BD
    162c:	88 23       	and	r24, r24
    162e:	b9 f7       	brne	.-18     	; 0x161e <moveAtSpeed+0x12>
}
    1630:	0f 91       	pop	r16
    1632:	08 95       	ret

00001634 <changeDirection>:

/**
 * Change direction function - just the same as with RP6Lib!
 */
void changeDirection(uint8_t dir)
{
    1634:	28 2f       	mov	r18, r24
	I2CTWI_transmit3Bytes(I2C_RP6_BASE_ADR, 0, CMD_CHANGE_DIR, dir);
    1636:	8a e0       	ldi	r24, 0x0A	; 10
    1638:	60 e0       	ldi	r22, 0x00	; 0
    163a:	46 e0       	ldi	r20, 0x06	; 6
    163c:	0e 94 99 08 	call	0x1132	; 0x1132 <I2CTWI_transmit3Bytes>
	while(I2CTWI_isBusy() || TWI_operation != I2CTWI_NO_OPERATION) task_I2CTWI();
    1640:	02 c0       	rjmp	.+4      	; 0x1646 <changeDirection+0x12>
    1642:	0e 94 fb 06 	call	0xdf6	; 0xdf6 <task_I2CTWI>
    1646:	06 b6       	in	r0, 0x36	; 54
    1648:	00 fc       	sbrc	r0, 0
    164a:	fb cf       	rjmp	.-10     	; 0x1642 <changeDirection+0xe>
    164c:	80 91 bd 00 	lds	r24, 0x00BD
    1650:	88 23       	and	r24, r24
    1652:	b9 f7       	brne	.-18     	; 0x1642 <changeDirection+0xe>
}
    1654:	08 95       	ret

00001656 <stop>:
/**
 * Stop function - just the same as with RP6Lib!
 */
void stop(void)
{
	I2CTWI_transmit2Bytes(I2C_RP6_BASE_ADR, 0, CMD_STOP);
    1656:	8a e0       	ldi	r24, 0x0A	; 10
    1658:	60 e0       	ldi	r22, 0x00	; 0
    165a:	44 e0       	ldi	r20, 0x04	; 4
    165c:	0e 94 76 08 	call	0x10ec	; 0x10ec <I2CTWI_transmit2Bytes>
	waitForTransmitComplete();
    1660:	0e 94 eb 0a 	call	0x15d6	; 0x15d6 <waitForTransmitComplete>
}
    1664:	08 95       	ret

00001666 <rotate>:

/**
 * Rotate function - just the same as with RP6Lib!
 */
void rotate(uint8_t desired_speed, uint8_t dir, uint16_t angle, uint8_t blocking)
{
    1666:	df 93       	push	r29
    1668:	cf 93       	push	r28
    166a:	0f 92       	push	r0
    166c:	cd b7       	in	r28, 0x3d	; 61
    166e:	de b7       	in	r29, 0x3e	; 62
	transmit_buffer[0] = 0;
    1670:	10 92 4c 05 	sts	0x054C, r1
	transmit_buffer[1] = CMD_ROTATE;
    1674:	98 e0       	ldi	r25, 0x08	; 8
    1676:	90 93 4d 05 	sts	0x054D, r25
	transmit_buffer[2] = desired_speed;
    167a:	80 93 4e 05 	sts	0x054E, r24
	transmit_buffer[3] = dir;
    167e:	60 93 4f 05 	sts	0x054F, r22
	transmit_buffer[4] = ((angle>>8) & 0xFF);
    1682:	50 93 50 05 	sts	0x0550, r21
	transmit_buffer[5] = (angle & 0xFF);
    1686:	40 93 51 05 	sts	0x0551, r20
	I2CTWI_transmitBytes(I2C_RP6_BASE_ADR, transmit_buffer, 6 );
    168a:	8a e0       	ldi	r24, 0x0A	; 10
    168c:	6c e4       	ldi	r22, 0x4C	; 76
    168e:	75 e0       	ldi	r23, 0x05	; 5
    1690:	46 e0       	ldi	r20, 0x06	; 6
    1692:	29 83       	std	Y+1, r18	; 0x01
    1694:	0e 94 ed 08 	call	0x11da	; 0x11da <I2CTWI_transmitBytes>
	// We need to wait until the I2C Bus transfer is complete and then 
	// check the movement status...
	waitForTransmitComplete();
    1698:	0e 94 eb 0a 	call	0x15d6	; 0x15d6 <waitForTransmitComplete>
	while(blocking && !drive_status.movementComplete) 
    169c:	29 81       	ldd	r18, Y+1	; 0x01
    169e:	22 23       	and	r18, r18
    16a0:	49 f0       	breq	.+18     	; 0x16b4 <rotate+0x4e>
    16a2:	04 c0       	rjmp	.+8      	; 0x16ac <rotate+0x46>
	{
		task_checkINT0();
    16a4:	0e 94 37 0a 	call	0x146e	; 0x146e <task_checkINT0>
		task_I2CTWI();
    16a8:	0e 94 fb 06 	call	0xdf6	; 0xdf6 <task_I2CTWI>
	transmit_buffer[5] = (angle & 0xFF);
	I2CTWI_transmitBytes(I2C_RP6_BASE_ADR, transmit_buffer, 6 );
	// We need to wait until the I2C Bus transfer is complete and then 
	// check the movement status...
	waitForTransmitComplete();
	while(blocking && !drive_status.movementComplete) 
    16ac:	80 91 f7 02 	lds	r24, 0x02F7
    16b0:	80 ff       	sbrs	r24, 0
    16b2:	f8 cf       	rjmp	.-16     	; 0x16a4 <rotate+0x3e>
	{
		task_checkINT0();
		task_I2CTWI();
	}
}
    16b4:	0f 90       	pop	r0
    16b6:	cf 91       	pop	r28
    16b8:	df 91       	pop	r29
    16ba:	08 95       	ret

000016bc <move>:

/**
 * Move function - just the same as with RP6Lib!
 */
void move(uint8_t desired_speed, uint8_t dir, uint16_t distance, uint8_t blocking)
{
    16bc:	df 93       	push	r29
    16be:	cf 93       	push	r28
    16c0:	0f 92       	push	r0
    16c2:	cd b7       	in	r28, 0x3d	; 61
    16c4:	de b7       	in	r29, 0x3e	; 62
	transmit_buffer[0] = 0;
    16c6:	10 92 4c 05 	sts	0x054C, r1
	transmit_buffer[1] = CMD_MOVE;
    16ca:	97 e0       	ldi	r25, 0x07	; 7
    16cc:	90 93 4d 05 	sts	0x054D, r25
	transmit_buffer[2] = desired_speed;
    16d0:	80 93 4e 05 	sts	0x054E, r24
	transmit_buffer[3] = dir;
    16d4:	60 93 4f 05 	sts	0x054F, r22
	transmit_buffer[4] = ((distance>>8) & 0xFF);
    16d8:	50 93 50 05 	sts	0x0550, r21
	transmit_buffer[5] = (distance & 0xFF);
    16dc:	40 93 51 05 	sts	0x0551, r20
	I2CTWI_transmitBytes(I2C_RP6_BASE_ADR, transmit_buffer, 6 );
    16e0:	8a e0       	ldi	r24, 0x0A	; 10
    16e2:	6c e4       	ldi	r22, 0x4C	; 76
    16e4:	75 e0       	ldi	r23, 0x05	; 5
    16e6:	46 e0       	ldi	r20, 0x06	; 6
    16e8:	29 83       	std	Y+1, r18	; 0x01
    16ea:	0e 94 ed 08 	call	0x11da	; 0x11da <I2CTWI_transmitBytes>
	waitForTransmitComplete();
    16ee:	0e 94 eb 0a 	call	0x15d6	; 0x15d6 <waitForTransmitComplete>
	while(blocking && !drive_status.movementComplete) 
    16f2:	29 81       	ldd	r18, Y+1	; 0x01
    16f4:	22 23       	and	r18, r18
    16f6:	49 f0       	breq	.+18     	; 0x170a <move+0x4e>
    16f8:	04 c0       	rjmp	.+8      	; 0x1702 <move+0x46>
	{
		task_checkINT0();
    16fa:	0e 94 37 0a 	call	0x146e	; 0x146e <task_checkINT0>
		task_I2CTWI();
    16fe:	0e 94 fb 06 	call	0xdf6	; 0xdf6 <task_I2CTWI>
	transmit_buffer[3] = dir;
	transmit_buffer[4] = ((distance>>8) & 0xFF);
	transmit_buffer[5] = (distance & 0xFF);
	I2CTWI_transmitBytes(I2C_RP6_BASE_ADR, transmit_buffer, 6 );
	waitForTransmitComplete();
	while(blocking && !drive_status.movementComplete) 
    1702:	80 91 f7 02 	lds	r24, 0x02F7
    1706:	80 ff       	sbrs	r24, 0
    1708:	f8 cf       	rjmp	.-16     	; 0x16fa <move+0x3e>
	{
		task_checkINT0();
		task_I2CTWI();
	}
}
    170a:	0f 90       	pop	r0
    170c:	cf 91       	pop	r28
    170e:	df 91       	pop	r29
    1710:	08 95       	ret

00001712 <end>:
bool found = false;


void end(void)
{
	if (mState == finding) totalCellsFindCourse = cellCounter;
    1712:	80 91 f8 02 	lds	r24, 0x02F8
    1716:	82 30       	cpi	r24, 0x02	; 2
    1718:	49 f4       	brne	.+18     	; 0x172c <end+0x1a>
    171a:	80 91 01 01 	lds	r24, 0x0101
    171e:	90 91 02 01 	lds	r25, 0x0102
    1722:	90 93 04 01 	sts	0x0104, r25
    1726:	80 93 03 01 	sts	0x0103, r24
    172a:	0a c0       	rjmp	.+20     	; 0x1740 <end+0x2e>
	if (mState == returning) totalCellsReturnCourse = cellCounter;
    172c:	83 30       	cpi	r24, 0x03	; 3
    172e:	41 f4       	brne	.+16     	; 0x1740 <end+0x2e>
    1730:	80 91 01 01 	lds	r24, 0x0101
    1734:	90 91 02 01 	lds	r25, 0x0102
    1738:	90 93 06 01 	sts	0x0106, r25
    173c:	80 93 05 01 	sts	0x0105, r24
	stop();
    1740:	0e 94 2b 0b 	call	0x1656	; 0x1656 <stop>
	mState = undefined;
    1744:	10 92 f8 02 	sts	0x02F8, r1
	kState = limbo;
    1748:	10 92 83 05 	sts	0x0583, r1
	sendData();
    174c:	0e 94 20 14 	call	0x2840	; 0x2840 <sendData>
}
    1750:	08 95       	ret

00001752 <checkProcessEndedAbruptly>:

void checkProcessEndedAbruptly(void)
{
	if(getPressedKeyNumber())
    1752:	0e 94 c7 02 	call	0x58e	; 0x58e <getPressedKeyNumber>
    1756:	88 23       	and	r24, r24
    1758:	81 f0       	breq	.+32     	; 0x177a <checkProcessEndedAbruptly+0x28>
	{
		softEndFind = (mState == finding);
    175a:	90 91 f8 02 	lds	r25, 0x02F8
    175e:	81 e0       	ldi	r24, 0x01	; 1
    1760:	92 30       	cpi	r25, 0x02	; 2
    1762:	09 f0       	breq	.+2      	; 0x1766 <checkProcessEndedAbruptly+0x14>
    1764:	80 e0       	ldi	r24, 0x00	; 0
    1766:	80 93 7a 00 	sts	0x007A, r24
		softEndReturn = (mState == returning);
    176a:	81 e0       	ldi	r24, 0x01	; 1
    176c:	93 30       	cpi	r25, 0x03	; 3
    176e:	09 f0       	breq	.+2      	; 0x1772 <checkProcessEndedAbruptly+0x20>
    1770:	80 e0       	ldi	r24, 0x00	; 0
    1772:	80 93 7b 00 	sts	0x007B, r24
		end();
    1776:	0e 94 89 0b 	call	0x1712	; 0x1712 <end>
    177a:	08 95       	ret

0000177c <onEnterCellHandler>:
}


void onEnterCellHandler(void)
{
	beep(100,10);
    177c:	84 e6       	ldi	r24, 0x64	; 100
    177e:	6a e0       	ldi	r22, 0x0A	; 10
    1780:	70 e0       	ldi	r23, 0x00	; 0
    1782:	0e 94 cc 03 	call	0x798	; 0x798 <beep>
	show_ENTERCELL();
    1786:	0e 94 c7 18 	call	0x318e	; 0x318e <show_ENTERCELL>

	updateWallData(); //add additional data to last cell.
    178a:	0e 94 69 16 	call	0x2cd2	; 0x2cd2 <updateWallData>

	cellCounter++; //officially entered this cell.
    178e:	80 91 01 01 	lds	r24, 0x0101
    1792:	90 91 02 01 	lds	r25, 0x0102
    1796:	01 96       	adiw	r24, 0x01	; 1
    1798:	90 93 02 01 	sts	0x0102, r25
    179c:	80 93 01 01 	sts	0x0101, r24

	//cellCounter will from this point always be higher than 0.
	mSleep(300);
    17a0:	8c e2       	ldi	r24, 0x2C	; 44
    17a2:	91 e0       	ldi	r25, 0x01	; 1
    17a4:	0e 94 f4 03 	call	0x7e8	; 0x7e8 <mSleep>
	if (mState==finding)
    17a8:	80 91 f8 02 	lds	r24, 0x02F8
    17ac:	82 30       	cpi	r24, 0x02	; 2
    17ae:	09 f0       	breq	.+2      	; 0x17b2 <onEnterCellHandler+0x36>
    17b0:	89 c0       	rjmp	.+274    	; 0x18c4 <onEnterCellHandler+0x148>
	{
		switch(dir)
    17b2:	80 91 fb 02 	lds	r24, 0x02FB
    17b6:	81 30       	cpi	r24, 0x01	; 1
    17b8:	41 f1       	breq	.+80     	; 0x180a <onEnterCellHandler+0x8e>
    17ba:	81 30       	cpi	r24, 0x01	; 1
    17bc:	38 f0       	brcs	.+14     	; 0x17cc <onEnterCellHandler+0x50>
    17be:	82 30       	cpi	r24, 0x02	; 2
    17c0:	09 f4       	brne	.+2      	; 0x17c4 <onEnterCellHandler+0x48>
    17c2:	42 c0       	rjmp	.+132    	; 0x1848 <onEnterCellHandler+0xcc>
    17c4:	83 30       	cpi	r24, 0x03	; 3
    17c6:	09 f0       	breq	.+2      	; 0x17ca <onEnterCellHandler+0x4e>
    17c8:	20 c1       	rjmp	.+576    	; 0x1a0a <onEnterCellHandler+0x28e>
    17ca:	5d c0       	rjmp	.+186    	; 0x1886 <onEnterCellHandler+0x10a>
		{
			case facingNorth: cells[cellCounter].y = cells[cellCounter-1].y - 1;break;
    17cc:	80 91 01 01 	lds	r24, 0x0101
    17d0:	90 91 02 01 	lds	r25, 0x0102
    17d4:	fc 01       	movw	r30, r24
    17d6:	ee 0f       	add	r30, r30
    17d8:	ff 1f       	adc	r31, r31
    17da:	9c 01       	movw	r18, r24
    17dc:	43 e0       	ldi	r20, 0x03	; 3
    17de:	22 0f       	add	r18, r18
    17e0:	33 1f       	adc	r19, r19
    17e2:	4a 95       	dec	r20
    17e4:	e1 f7       	brne	.-8      	; 0x17de <onEnterCellHandler+0x62>
    17e6:	e2 0f       	add	r30, r18
    17e8:	f3 1f       	adc	r31, r19
    17ea:	e4 50       	subi	r30, 0x04	; 4
    17ec:	fd 4f       	sbci	r31, 0xFD	; 253
    17ee:	01 97       	sbiw	r24, 0x01	; 1
    17f0:	dc 01       	movw	r26, r24
    17f2:	aa 0f       	add	r26, r26
    17f4:	bb 1f       	adc	r27, r27
    17f6:	23 e0       	ldi	r18, 0x03	; 3
    17f8:	88 0f       	add	r24, r24
    17fa:	99 1f       	adc	r25, r25
    17fc:	2a 95       	dec	r18
    17fe:	e1 f7       	brne	.-8      	; 0x17f8 <onEnterCellHandler+0x7c>
    1800:	a8 0f       	add	r26, r24
    1802:	b9 1f       	adc	r27, r25
    1804:	a4 50       	subi	r26, 0x04	; 4
    1806:	bd 4f       	sbci	r27, 0xFD	; 253
    1808:	8b c0       	rjmp	.+278    	; 0x1920 <onEnterCellHandler+0x1a4>
			case facingEast: cells[cellCounter].x = cells[cellCounter-1].x + 1;break;
    180a:	80 91 01 01 	lds	r24, 0x0101
    180e:	90 91 02 01 	lds	r25, 0x0102
    1812:	fc 01       	movw	r30, r24
    1814:	ee 0f       	add	r30, r30
    1816:	ff 1f       	adc	r31, r31
    1818:	9c 01       	movw	r18, r24
    181a:	a3 e0       	ldi	r26, 0x03	; 3
    181c:	22 0f       	add	r18, r18
    181e:	33 1f       	adc	r19, r19
    1820:	aa 95       	dec	r26
    1822:	e1 f7       	brne	.-8      	; 0x181c <onEnterCellHandler+0xa0>
    1824:	e2 0f       	add	r30, r18
    1826:	f3 1f       	adc	r31, r19
    1828:	e4 50       	subi	r30, 0x04	; 4
    182a:	fd 4f       	sbci	r31, 0xFD	; 253
    182c:	01 97       	sbiw	r24, 0x01	; 1
    182e:	dc 01       	movw	r26, r24
    1830:	aa 0f       	add	r26, r26
    1832:	bb 1f       	adc	r27, r27
    1834:	63 e0       	ldi	r22, 0x03	; 3
    1836:	88 0f       	add	r24, r24
    1838:	99 1f       	adc	r25, r25
    183a:	6a 95       	dec	r22
    183c:	e1 f7       	brne	.-8      	; 0x1836 <onEnterCellHandler+0xba>
    183e:	a8 0f       	add	r26, r24
    1840:	b9 1f       	adc	r27, r25
    1842:	a4 50       	subi	r26, 0x04	; 4
    1844:	bd 4f       	sbci	r27, 0xFD	; 253
    1846:	92 c0       	rjmp	.+292    	; 0x196c <onEnterCellHandler+0x1f0>
			case facingSouth: cells[cellCounter].y = cells[cellCounter-1].y + 1;break;
    1848:	80 91 01 01 	lds	r24, 0x0101
    184c:	90 91 02 01 	lds	r25, 0x0102
    1850:	fc 01       	movw	r30, r24
    1852:	ee 0f       	add	r30, r30
    1854:	ff 1f       	adc	r31, r31
    1856:	9c 01       	movw	r18, r24
    1858:	43 e0       	ldi	r20, 0x03	; 3
    185a:	22 0f       	add	r18, r18
    185c:	33 1f       	adc	r19, r19
    185e:	4a 95       	dec	r20
    1860:	e1 f7       	brne	.-8      	; 0x185a <onEnterCellHandler+0xde>
    1862:	e2 0f       	add	r30, r18
    1864:	f3 1f       	adc	r31, r19
    1866:	e4 50       	subi	r30, 0x04	; 4
    1868:	fd 4f       	sbci	r31, 0xFD	; 253
    186a:	01 97       	sbiw	r24, 0x01	; 1
    186c:	dc 01       	movw	r26, r24
    186e:	aa 0f       	add	r26, r26
    1870:	bb 1f       	adc	r27, r27
    1872:	23 e0       	ldi	r18, 0x03	; 3
    1874:	88 0f       	add	r24, r24
    1876:	99 1f       	adc	r25, r25
    1878:	2a 95       	dec	r18
    187a:	e1 f7       	brne	.-8      	; 0x1874 <onEnterCellHandler+0xf8>
    187c:	a8 0f       	add	r26, r24
    187e:	b9 1f       	adc	r27, r25
    1880:	a4 50       	subi	r26, 0x04	; 4
    1882:	bd 4f       	sbci	r27, 0xFD	; 253
    1884:	97 c0       	rjmp	.+302    	; 0x19b4 <onEnterCellHandler+0x238>
			case facingWest: cells[cellCounter].x = cells[cellCounter-1].x - 1;break;
    1886:	80 91 01 01 	lds	r24, 0x0101
    188a:	90 91 02 01 	lds	r25, 0x0102
    188e:	fc 01       	movw	r30, r24
    1890:	ee 0f       	add	r30, r30
    1892:	ff 1f       	adc	r31, r31
    1894:	9c 01       	movw	r18, r24
    1896:	a3 e0       	ldi	r26, 0x03	; 3
    1898:	22 0f       	add	r18, r18
    189a:	33 1f       	adc	r19, r19
    189c:	aa 95       	dec	r26
    189e:	e1 f7       	brne	.-8      	; 0x1898 <onEnterCellHandler+0x11c>
    18a0:	e2 0f       	add	r30, r18
    18a2:	f3 1f       	adc	r31, r19
    18a4:	e4 50       	subi	r30, 0x04	; 4
    18a6:	fd 4f       	sbci	r31, 0xFD	; 253
    18a8:	01 97       	sbiw	r24, 0x01	; 1
    18aa:	dc 01       	movw	r26, r24
    18ac:	aa 0f       	add	r26, r26
    18ae:	bb 1f       	adc	r27, r27
    18b0:	63 e0       	ldi	r22, 0x03	; 3
    18b2:	88 0f       	add	r24, r24
    18b4:	99 1f       	adc	r25, r25
    18b6:	6a 95       	dec	r22
    18b8:	e1 f7       	brne	.-8      	; 0x18b2 <onEnterCellHandler+0x136>
    18ba:	a8 0f       	add	r26, r24
    18bc:	b9 1f       	adc	r27, r25
    18be:	a4 50       	subi	r26, 0x04	; 4
    18c0:	bd 4f       	sbci	r27, 0xFD	; 253
    18c2:	9c c0       	rjmp	.+312    	; 0x19fc <onEnterCellHandler+0x280>
		}
	}
	else if (mState==returning)
    18c4:	83 30       	cpi	r24, 0x03	; 3
    18c6:	09 f0       	breq	.+2      	; 0x18ca <onEnterCellHandler+0x14e>
    18c8:	a0 c0       	rjmp	.+320    	; 0x1a0a <onEnterCellHandler+0x28e>
	{
		switch(dir)
    18ca:	80 91 fb 02 	lds	r24, 0x02FB
    18ce:	81 30       	cpi	r24, 0x01	; 1
    18d0:	79 f1       	breq	.+94     	; 0x1930 <onEnterCellHandler+0x1b4>
    18d2:	81 30       	cpi	r24, 0x01	; 1
    18d4:	38 f0       	brcs	.+14     	; 0x18e4 <onEnterCellHandler+0x168>
    18d6:	82 30       	cpi	r24, 0x02	; 2
    18d8:	09 f4       	brne	.+2      	; 0x18dc <onEnterCellHandler+0x160>
    18da:	4e c0       	rjmp	.+156    	; 0x1978 <onEnterCellHandler+0x1fc>
    18dc:	83 30       	cpi	r24, 0x03	; 3
    18de:	09 f0       	breq	.+2      	; 0x18e2 <onEnterCellHandler+0x166>
    18e0:	94 c0       	rjmp	.+296    	; 0x1a0a <onEnterCellHandler+0x28e>
    18e2:	6e c0       	rjmp	.+220    	; 0x19c0 <onEnterCellHandler+0x244>
		{
			case facingNorth: invCells[cellCounter].y = invCells[cellCounter-1].y - 1;break;
    18e4:	80 91 01 01 	lds	r24, 0x0101
    18e8:	90 91 02 01 	lds	r25, 0x0102
    18ec:	fc 01       	movw	r30, r24
    18ee:	ee 0f       	add	r30, r30
    18f0:	ff 1f       	adc	r31, r31
    18f2:	9c 01       	movw	r18, r24
    18f4:	43 e0       	ldi	r20, 0x03	; 3
    18f6:	22 0f       	add	r18, r18
    18f8:	33 1f       	adc	r19, r19
    18fa:	4a 95       	dec	r20
    18fc:	e1 f7       	brne	.-8      	; 0x18f6 <onEnterCellHandler+0x17a>
    18fe:	e2 0f       	add	r30, r18
    1900:	f3 1f       	adc	r31, r19
    1902:	e3 5f       	subi	r30, 0xF3	; 243
    1904:	fe 4f       	sbci	r31, 0xFE	; 254
    1906:	01 97       	sbiw	r24, 0x01	; 1
    1908:	dc 01       	movw	r26, r24
    190a:	aa 0f       	add	r26, r26
    190c:	bb 1f       	adc	r27, r27
    190e:	23 e0       	ldi	r18, 0x03	; 3
    1910:	88 0f       	add	r24, r24
    1912:	99 1f       	adc	r25, r25
    1914:	2a 95       	dec	r18
    1916:	e1 f7       	brne	.-8      	; 0x1910 <onEnterCellHandler+0x194>
    1918:	a8 0f       	add	r26, r24
    191a:	b9 1f       	adc	r27, r25
    191c:	a3 5f       	subi	r26, 0xF3	; 243
    191e:	be 4f       	sbci	r27, 0xFE	; 254
    1920:	16 96       	adiw	r26, 0x06	; 6
    1922:	8d 91       	ld	r24, X+
    1924:	9c 91       	ld	r25, X
    1926:	17 97       	sbiw	r26, 0x07	; 7
    1928:	01 97       	sbiw	r24, 0x01	; 1
    192a:	97 83       	std	Z+7, r25	; 0x07
    192c:	86 83       	std	Z+6, r24	; 0x06
    192e:	6d c0       	rjmp	.+218    	; 0x1a0a <onEnterCellHandler+0x28e>
			case facingEast: invCells[cellCounter].x = invCells[cellCounter-1].x + 1;break;
    1930:	80 91 01 01 	lds	r24, 0x0101
    1934:	90 91 02 01 	lds	r25, 0x0102
    1938:	fc 01       	movw	r30, r24
    193a:	ee 0f       	add	r30, r30
    193c:	ff 1f       	adc	r31, r31
    193e:	9c 01       	movw	r18, r24
    1940:	a3 e0       	ldi	r26, 0x03	; 3
    1942:	22 0f       	add	r18, r18
    1944:	33 1f       	adc	r19, r19
    1946:	aa 95       	dec	r26
    1948:	e1 f7       	brne	.-8      	; 0x1942 <onEnterCellHandler+0x1c6>
    194a:	e2 0f       	add	r30, r18
    194c:	f3 1f       	adc	r31, r19
    194e:	e3 5f       	subi	r30, 0xF3	; 243
    1950:	fe 4f       	sbci	r31, 0xFE	; 254
    1952:	01 97       	sbiw	r24, 0x01	; 1
    1954:	dc 01       	movw	r26, r24
    1956:	aa 0f       	add	r26, r26
    1958:	bb 1f       	adc	r27, r27
    195a:	63 e0       	ldi	r22, 0x03	; 3
    195c:	88 0f       	add	r24, r24
    195e:	99 1f       	adc	r25, r25
    1960:	6a 95       	dec	r22
    1962:	e1 f7       	brne	.-8      	; 0x195c <onEnterCellHandler+0x1e0>
    1964:	a8 0f       	add	r26, r24
    1966:	b9 1f       	adc	r27, r25
    1968:	a3 5f       	subi	r26, 0xF3	; 243
    196a:	be 4f       	sbci	r27, 0xFE	; 254
    196c:	14 96       	adiw	r26, 0x04	; 4
    196e:	8d 91       	ld	r24, X+
    1970:	9c 91       	ld	r25, X
    1972:	15 97       	sbiw	r26, 0x05	; 5
    1974:	01 96       	adiw	r24, 0x01	; 1
    1976:	47 c0       	rjmp	.+142    	; 0x1a06 <onEnterCellHandler+0x28a>
			case facingSouth: invCells[cellCounter].y = invCells[cellCounter-1].y + 1;break;
    1978:	80 91 01 01 	lds	r24, 0x0101
    197c:	90 91 02 01 	lds	r25, 0x0102
    1980:	fc 01       	movw	r30, r24
    1982:	ee 0f       	add	r30, r30
    1984:	ff 1f       	adc	r31, r31
    1986:	9c 01       	movw	r18, r24
    1988:	43 e0       	ldi	r20, 0x03	; 3
    198a:	22 0f       	add	r18, r18
    198c:	33 1f       	adc	r19, r19
    198e:	4a 95       	dec	r20
    1990:	e1 f7       	brne	.-8      	; 0x198a <onEnterCellHandler+0x20e>
    1992:	e2 0f       	add	r30, r18
    1994:	f3 1f       	adc	r31, r19
    1996:	e3 5f       	subi	r30, 0xF3	; 243
    1998:	fe 4f       	sbci	r31, 0xFE	; 254
    199a:	01 97       	sbiw	r24, 0x01	; 1
    199c:	dc 01       	movw	r26, r24
    199e:	aa 0f       	add	r26, r26
    19a0:	bb 1f       	adc	r27, r27
    19a2:	23 e0       	ldi	r18, 0x03	; 3
    19a4:	88 0f       	add	r24, r24
    19a6:	99 1f       	adc	r25, r25
    19a8:	2a 95       	dec	r18
    19aa:	e1 f7       	brne	.-8      	; 0x19a4 <onEnterCellHandler+0x228>
    19ac:	a8 0f       	add	r26, r24
    19ae:	b9 1f       	adc	r27, r25
    19b0:	a3 5f       	subi	r26, 0xF3	; 243
    19b2:	be 4f       	sbci	r27, 0xFE	; 254
    19b4:	16 96       	adiw	r26, 0x06	; 6
    19b6:	8d 91       	ld	r24, X+
    19b8:	9c 91       	ld	r25, X
    19ba:	17 97       	sbiw	r26, 0x07	; 7
    19bc:	01 96       	adiw	r24, 0x01	; 1
    19be:	b5 cf       	rjmp	.-150    	; 0x192a <onEnterCellHandler+0x1ae>
			case facingWest: invCells[cellCounter].x = invCells[cellCounter-1].x - 1;break;
    19c0:	80 91 01 01 	lds	r24, 0x0101
    19c4:	90 91 02 01 	lds	r25, 0x0102
    19c8:	fc 01       	movw	r30, r24
    19ca:	ee 0f       	add	r30, r30
    19cc:	ff 1f       	adc	r31, r31
    19ce:	9c 01       	movw	r18, r24
    19d0:	63 e0       	ldi	r22, 0x03	; 3
    19d2:	22 0f       	add	r18, r18
    19d4:	33 1f       	adc	r19, r19
    19d6:	6a 95       	dec	r22
    19d8:	e1 f7       	brne	.-8      	; 0x19d2 <onEnterCellHandler+0x256>
    19da:	e2 0f       	add	r30, r18
    19dc:	f3 1f       	adc	r31, r19
    19de:	e3 5f       	subi	r30, 0xF3	; 243
    19e0:	fe 4f       	sbci	r31, 0xFE	; 254
    19e2:	01 97       	sbiw	r24, 0x01	; 1
    19e4:	dc 01       	movw	r26, r24
    19e6:	aa 0f       	add	r26, r26
    19e8:	bb 1f       	adc	r27, r27
    19ea:	43 e0       	ldi	r20, 0x03	; 3
    19ec:	88 0f       	add	r24, r24
    19ee:	99 1f       	adc	r25, r25
    19f0:	4a 95       	dec	r20
    19f2:	e1 f7       	brne	.-8      	; 0x19ec <onEnterCellHandler+0x270>
    19f4:	a8 0f       	add	r26, r24
    19f6:	b9 1f       	adc	r27, r25
    19f8:	a3 5f       	subi	r26, 0xF3	; 243
    19fa:	be 4f       	sbci	r27, 0xFE	; 254
    19fc:	14 96       	adiw	r26, 0x04	; 4
    19fe:	8d 91       	ld	r24, X+
    1a00:	9c 91       	ld	r25, X
    1a02:	15 97       	sbiw	r26, 0x05	; 5
    1a04:	01 97       	sbiw	r24, 0x01	; 1
    1a06:	95 83       	std	Z+5, r25	; 0x05
    1a08:	84 83       	std	Z+4, r24	; 0x04
		}
	}


	cells[cellCounter].dir = dir;
    1a0a:	80 91 01 01 	lds	r24, 0x0101
    1a0e:	90 91 02 01 	lds	r25, 0x0102
    1a12:	fc 01       	movw	r30, r24
    1a14:	ee 0f       	add	r30, r30
    1a16:	ff 1f       	adc	r31, r31
    1a18:	23 e0       	ldi	r18, 0x03	; 3
    1a1a:	88 0f       	add	r24, r24
    1a1c:	99 1f       	adc	r25, r25
    1a1e:	2a 95       	dec	r18
    1a20:	e1 f7       	brne	.-8      	; 0x1a1a <onEnterCellHandler+0x29e>
    1a22:	e8 0f       	add	r30, r24
    1a24:	f9 1f       	adc	r31, r25
    1a26:	e4 50       	subi	r30, 0x04	; 4
    1a28:	fd 4f       	sbci	r31, 0xFD	; 253
    1a2a:	80 91 fb 02 	lds	r24, 0x02FB
    1a2e:	81 87       	std	Z+9, r24	; 0x09
}
    1a30:	08 95       	ret

00001a32 <onLeaveCellHandler>:

void onLeaveCellHandler(void)
{
    1a32:	0f 93       	push	r16
    1a34:	1f 93       	push	r17
    1a36:	cf 93       	push	r28
    1a38:	df 93       	push	r29
	show_LEAVECELL();
    1a3a:	0e 94 d0 18 	call	0x31a0	; 0x31a0 <show_LEAVECELL>
	updateWallData();
    1a3e:	0e 94 69 16 	call	0x2cd2	; 0x2cd2 <updateWallData>

	mSleep(300);
    1a42:	8c e2       	ldi	r24, 0x2C	; 44
    1a44:	91 e0       	ldi	r25, 0x01	; 1
    1a46:	0e 94 f4 03 	call	0x7e8	; 0x7e8 <mSleep>
	if (mState==finding)
    1a4a:	80 91 f8 02 	lds	r24, 0x02F8
    1a4e:	82 30       	cpi	r24, 0x02	; 2
    1a50:	e9 f5       	brne	.+122    	; 0x1acc <onLeaveCellHandler+0x9a>
		show_WHICHWALL(cells[cellCounter].north,cells[cellCounter].east,cells[cellCounter].south,cells[cellCounter].west);
    1a52:	50 91 01 01 	lds	r21, 0x0101
    1a56:	40 91 02 01 	lds	r20, 0x0102
    1a5a:	25 2f       	mov	r18, r21
    1a5c:	34 2f       	mov	r19, r20
    1a5e:	c9 01       	movw	r24, r18
    1a60:	88 0f       	add	r24, r24
    1a62:	99 1f       	adc	r25, r25
    1a64:	a3 e0       	ldi	r26, 0x03	; 3
    1a66:	22 0f       	add	r18, r18
    1a68:	33 1f       	adc	r19, r19
    1a6a:	aa 95       	dec	r26
    1a6c:	e1 f7       	brne	.-8      	; 0x1a66 <onLeaveCellHandler+0x34>
    1a6e:	82 0f       	add	r24, r18
    1a70:	93 1f       	adc	r25, r19
    1a72:	84 50       	subi	r24, 0x04	; 4
    1a74:	9d 4f       	sbci	r25, 0xFD	; 253
    1a76:	25 2f       	mov	r18, r21
    1a78:	34 2f       	mov	r19, r20
    1a7a:	e9 01       	movw	r28, r18
    1a7c:	cc 0f       	add	r28, r28
    1a7e:	dd 1f       	adc	r29, r29
    1a80:	e3 e0       	ldi	r30, 0x03	; 3
    1a82:	22 0f       	add	r18, r18
    1a84:	33 1f       	adc	r19, r19
    1a86:	ea 95       	dec	r30
    1a88:	e1 f7       	brne	.-8      	; 0x1a82 <onLeaveCellHandler+0x50>
    1a8a:	c2 0f       	add	r28, r18
    1a8c:	d3 1f       	adc	r29, r19
    1a8e:	c4 50       	subi	r28, 0x04	; 4
    1a90:	dd 4f       	sbci	r29, 0xFD	; 253
    1a92:	25 2f       	mov	r18, r21
    1a94:	34 2f       	mov	r19, r20
    1a96:	d9 01       	movw	r26, r18
    1a98:	aa 0f       	add	r26, r26
    1a9a:	bb 1f       	adc	r27, r27
    1a9c:	63 e0       	ldi	r22, 0x03	; 3
    1a9e:	22 0f       	add	r18, r18
    1aa0:	33 1f       	adc	r19, r19
    1aa2:	6a 95       	dec	r22
    1aa4:	e1 f7       	brne	.-8      	; 0x1a9e <onLeaveCellHandler+0x6c>
    1aa6:	a2 0f       	add	r26, r18
    1aa8:	b3 1f       	adc	r27, r19
    1aaa:	a4 50       	subi	r26, 0x04	; 4
    1aac:	bd 4f       	sbci	r27, 0xFD	; 253
    1aae:	25 2f       	mov	r18, r21
    1ab0:	34 2f       	mov	r19, r20
    1ab2:	89 01       	movw	r16, r18
    1ab4:	00 0f       	add	r16, r16
    1ab6:	11 1f       	adc	r17, r17
    1ab8:	43 e0       	ldi	r20, 0x03	; 3
    1aba:	22 0f       	add	r18, r18
    1abc:	33 1f       	adc	r19, r19
    1abe:	4a 95       	dec	r20
    1ac0:	e1 f7       	brne	.-8      	; 0x1aba <onLeaveCellHandler+0x88>
    1ac2:	02 0f       	add	r16, r18
    1ac4:	13 1f       	adc	r17, r19
    1ac6:	04 50       	subi	r16, 0x04	; 4
    1ac8:	1d 4f       	sbci	r17, 0xFD	; 253
    1aca:	3f c0       	rjmp	.+126    	; 0x1b4a <onLeaveCellHandler+0x118>
	else if (mState==returning)
    1acc:	83 30       	cpi	r24, 0x03	; 3
    1ace:	09 f0       	breq	.+2      	; 0x1ad2 <onLeaveCellHandler+0xa0>
    1ad0:	45 c0       	rjmp	.+138    	; 0x1b5c <onLeaveCellHandler+0x12a>
		show_WHICHWALL(invCells[cellCounter].north,invCells[cellCounter].east,invCells[cellCounter].south,invCells[cellCounter].west);
    1ad2:	50 91 01 01 	lds	r21, 0x0101
    1ad6:	40 91 02 01 	lds	r20, 0x0102
    1ada:	25 2f       	mov	r18, r21
    1adc:	34 2f       	mov	r19, r20
    1ade:	c9 01       	movw	r24, r18
    1ae0:	88 0f       	add	r24, r24
    1ae2:	99 1f       	adc	r25, r25
    1ae4:	13 e0       	ldi	r17, 0x03	; 3
    1ae6:	22 0f       	add	r18, r18
    1ae8:	33 1f       	adc	r19, r19
    1aea:	1a 95       	dec	r17
    1aec:	e1 f7       	brne	.-8      	; 0x1ae6 <onLeaveCellHandler+0xb4>
    1aee:	82 0f       	add	r24, r18
    1af0:	93 1f       	adc	r25, r19
    1af2:	83 5f       	subi	r24, 0xF3	; 243
    1af4:	9e 4f       	sbci	r25, 0xFE	; 254
    1af6:	25 2f       	mov	r18, r21
    1af8:	34 2f       	mov	r19, r20
    1afa:	e9 01       	movw	r28, r18
    1afc:	cc 0f       	add	r28, r28
    1afe:	dd 1f       	adc	r29, r29
    1b00:	a3 e0       	ldi	r26, 0x03	; 3
    1b02:	22 0f       	add	r18, r18
    1b04:	33 1f       	adc	r19, r19
    1b06:	aa 95       	dec	r26
    1b08:	e1 f7       	brne	.-8      	; 0x1b02 <onLeaveCellHandler+0xd0>
    1b0a:	c2 0f       	add	r28, r18
    1b0c:	d3 1f       	adc	r29, r19
    1b0e:	c3 5f       	subi	r28, 0xF3	; 243
    1b10:	de 4f       	sbci	r29, 0xFE	; 254
    1b12:	25 2f       	mov	r18, r21
    1b14:	34 2f       	mov	r19, r20
    1b16:	d9 01       	movw	r26, r18
    1b18:	aa 0f       	add	r26, r26
    1b1a:	bb 1f       	adc	r27, r27
    1b1c:	e3 e0       	ldi	r30, 0x03	; 3
    1b1e:	22 0f       	add	r18, r18
    1b20:	33 1f       	adc	r19, r19
    1b22:	ea 95       	dec	r30
    1b24:	e1 f7       	brne	.-8      	; 0x1b1e <onLeaveCellHandler+0xec>
    1b26:	a2 0f       	add	r26, r18
    1b28:	b3 1f       	adc	r27, r19
    1b2a:	a3 5f       	subi	r26, 0xF3	; 243
    1b2c:	be 4f       	sbci	r27, 0xFE	; 254
    1b2e:	25 2f       	mov	r18, r21
    1b30:	34 2f       	mov	r19, r20
    1b32:	89 01       	movw	r16, r18
    1b34:	00 0f       	add	r16, r16
    1b36:	11 1f       	adc	r17, r17
    1b38:	63 e0       	ldi	r22, 0x03	; 3
    1b3a:	22 0f       	add	r18, r18
    1b3c:	33 1f       	adc	r19, r19
    1b3e:	6a 95       	dec	r22
    1b40:	e1 f7       	brne	.-8      	; 0x1b3a <onLeaveCellHandler+0x108>
    1b42:	02 0f       	add	r16, r18
    1b44:	13 1f       	adc	r17, r19
    1b46:	03 5f       	subi	r16, 0xF3	; 243
    1b48:	1e 4f       	sbci	r17, 0xFE	; 254
    1b4a:	fc 01       	movw	r30, r24
    1b4c:	80 81       	ld	r24, Z
    1b4e:	69 81       	ldd	r22, Y+1	; 0x01
    1b50:	12 96       	adiw	r26, 0x02	; 2
    1b52:	4c 91       	ld	r20, X
    1b54:	f8 01       	movw	r30, r16
    1b56:	23 81       	ldd	r18, Z+3	; 0x03
    1b58:	0e 94 04 19 	call	0x3208	; 0x3208 <show_WHICHWALL>

	mSleep(300);
    1b5c:	8c e2       	ldi	r24, 0x2C	; 44
    1b5e:	91 e0       	ldi	r25, 0x01	; 1
    1b60:	0e 94 f4 03 	call	0x7e8	; 0x7e8 <mSleep>

	beep(40,10);
    1b64:	88 e2       	ldi	r24, 0x28	; 40
    1b66:	6a e0       	ldi	r22, 0x0A	; 10
    1b68:	70 e0       	ldi	r23, 0x00	; 0
    1b6a:	0e 94 cc 03 	call	0x798	; 0x798 <beep>
//	writeString("X: ");
//	writeInteger(cells[cellCounter].x,10);
//	writeString(", Y: ");
//	writeInteger(cells[cellCounter].y,10);
//	writeChar('\n');
}
    1b6e:	df 91       	pop	r29
    1b70:	cf 91       	pop	r28
    1b72:	1f 91       	pop	r17
    1b74:	0f 91       	pop	r16
    1b76:	08 95       	ret

00001b78 <initCoreControl>:

void initCoreControl(void)
{
	initLCD();
    1b78:	0e 94 15 05 	call	0xa2a	; 0xa2a <initLCD>
	initASI();
    1b7c:	0e 94 7d 15 	call	0x2afa	; 0x2afa <initASI>
	initMoveControl();
    1b80:	0e 94 77 12 	call	0x24ee	; 0x24ee <initMoveControl>
	initPositionControl();
    1b84:	0e 94 32 16 	call	0x2c64	; 0x2c64 <initPositionControl>


	initCommControl();
    1b88:	0e 94 ec 13 	call	0x27d8	; 0x27d8 <initCommControl>

	show_PLACEMEATPOSITION(cells[0].x,cells[0].y,dir);
    1b8c:	80 91 00 03 	lds	r24, 0x0300
    1b90:	60 91 02 03 	lds	r22, 0x0302
    1b94:	40 91 fb 02 	lds	r20, 0x02FB
    1b98:	0e 94 69 18 	call	0x30d2	; 0x30d2 <show_PLACEMEATPOSITION>
	//PRESS ANY KEY TO CONTINUE
	while(getPressedKeyNumber()!=1) {}
    1b9c:	0e 94 c7 02 	call	0x58e	; 0x58e <getPressedKeyNumber>
    1ba0:	81 30       	cpi	r24, 0x01	; 1
    1ba2:	e1 f7       	brne	.-8      	; 0x1b9c <initCoreControl+0x24>
//	softEndFind=false;
//	totalCellsFindCourse = 5;
//
//	sendData();
	//mState = calibrating;
	mState = finding;
    1ba4:	82 e0       	ldi	r24, 0x02	; 2
    1ba6:	80 93 f8 02 	sts	0x02F8, r24

}
    1baa:	08 95       	ret

00001bac <costFunction>:
	int beta = 0;
	if (sizeof(a)!=sizeof(b)) return 16384;
	int length = sizeof(a)/sizeof(int);
	for (int j = 0; j < length; ++j)
	{
		beta = pow(a[j]-b[j],2);
    1bac:	fc 01       	movw	r30, r24
    1bae:	80 81       	ld	r24, Z
    1bb0:	91 81       	ldd	r25, Z+1	; 0x01
    1bb2:	fb 01       	movw	r30, r22
    1bb4:	20 81       	ld	r18, Z
    1bb6:	31 81       	ldd	r19, Z+1	; 0x01
    1bb8:	82 1b       	sub	r24, r18
    1bba:	93 0b       	sbc	r25, r19
    1bbc:	9c 01       	movw	r18, r24
    1bbe:	b9 01       	movw	r22, r18
    1bc0:	88 27       	eor	r24, r24
    1bc2:	77 fd       	sbrc	r23, 7
    1bc4:	80 95       	com	r24
    1bc6:	98 2f       	mov	r25, r24
    1bc8:	0e 94 90 19 	call	0x3320	; 0x3320 <__floatsisf>
    1bcc:	9b 01       	movw	r18, r22
    1bce:	ac 01       	movw	r20, r24
    1bd0:	0e 94 f4 19 	call	0x33e8	; 0x33e8 <__mulsf3>
    1bd4:	0e 94 5d 19 	call	0x32ba	; 0x32ba <__fixsfsi>
    1bd8:	cb 01       	movw	r24, r22
	}
	return beta / (2*length);
    1bda:	62 e0       	ldi	r22, 0x02	; 2
    1bdc:	70 e0       	ldi	r23, 0x00	; 0
    1bde:	0e 94 93 1a 	call	0x3526	; 0x3526 <__divmodhi4>
}
    1be2:	cb 01       	movw	r24, r22
    1be4:	08 95       	ret

00001be6 <calibrate>:

void calibrate(void)
{
    1be6:	2f 92       	push	r2
    1be8:	3f 92       	push	r3
    1bea:	4f 92       	push	r4
    1bec:	5f 92       	push	r5
    1bee:	6f 92       	push	r6
    1bf0:	7f 92       	push	r7
    1bf2:	8f 92       	push	r8
    1bf4:	9f 92       	push	r9
    1bf6:	af 92       	push	r10
    1bf8:	bf 92       	push	r11
    1bfa:	cf 92       	push	r12
    1bfc:	df 92       	push	r13
    1bfe:	ef 92       	push	r14
    1c00:	ff 92       	push	r15
    1c02:	0f 93       	push	r16
    1c04:	1f 93       	push	r17
    1c06:	df 93       	push	r29
    1c08:	cf 93       	push	r28
    1c0a:	cd b7       	in	r28, 0x3d	; 61
    1c0c:	de b7       	in	r29, 0x3e	; 62
    1c0e:	60 97       	sbiw	r28, 0x10	; 16
    1c10:	0f b6       	in	r0, 0x3f	; 63
    1c12:	f8 94       	cli
    1c14:	de bf       	out	0x3e, r29	; 62
    1c16:	0f be       	out	0x3f, r0	; 63
    1c18:	cd bf       	out	0x3d, r28	; 61
	//get current sensor values. save them.
	//save the sensor values, oh no!!!!
	int origin[4] = {readAvgADC(ADC_4,5),readAvgADC(ADC_3,5),readAvgADC(ADC_5,5),readAvgADC(ADC_2,5)};
    1c1a:	84 e0       	ldi	r24, 0x04	; 4
    1c1c:	65 e0       	ldi	r22, 0x05	; 5
    1c1e:	0e 94 c7 15 	call	0x2b8e	; 0x2b8e <readAvgADC>
    1c22:	8c 01       	movw	r16, r24
    1c24:	83 e0       	ldi	r24, 0x03	; 3
    1c26:	65 e0       	ldi	r22, 0x05	; 5
    1c28:	0e 94 c7 15 	call	0x2b8e	; 0x2b8e <readAvgADC>
    1c2c:	7c 01       	movw	r14, r24
    1c2e:	85 e0       	ldi	r24, 0x05	; 5
    1c30:	65 e0       	ldi	r22, 0x05	; 5
    1c32:	0e 94 c7 15 	call	0x2b8e	; 0x2b8e <readAvgADC>
    1c36:	6c 01       	movw	r12, r24
    1c38:	82 e0       	ldi	r24, 0x02	; 2
    1c3a:	65 e0       	ldi	r22, 0x05	; 5
    1c3c:	0e 94 c7 15 	call	0x2b8e	; 0x2b8e <readAvgADC>
    1c40:	1a 83       	std	Y+2, r17	; 0x02
    1c42:	09 83       	std	Y+1, r16	; 0x01
    1c44:	fc 82       	std	Y+4, r15	; 0x04
    1c46:	eb 82       	std	Y+3, r14	; 0x03
    1c48:	de 82       	std	Y+6, r13	; 0x06
    1c4a:	cd 82       	std	Y+5, r12	; 0x05
    1c4c:	98 87       	std	Y+8, r25	; 0x08
    1c4e:	8f 83       	std	Y+7, r24	; 0x07

	//turn a guess value for 360 degrees.
	move(40,LEFT,dist360,true);
    1c50:	40 91 78 00 	lds	r20, 0x0078
    1c54:	50 91 79 00 	lds	r21, 0x0079
    1c58:	88 e2       	ldi	r24, 0x28	; 40
    1c5a:	62 e0       	ldi	r22, 0x02	; 2
    1c5c:	21 e0       	ldi	r18, 0x01	; 1
    1c5e:	0e 94 5e 0b 	call	0x16bc	; 0x16bc <move>
	int delta = 2;
	int totaldelta = 0;
	int cost;
	int lastCost = 9000; //initialize
	int alpha = 80;//learning rate
	for(int i=0;i<num_iters;i++)
    1c62:	cc 24       	eor	r12, r12
    1c64:	dd 24       	eor	r13, r13
	//on approach of end, read values again. Use alternative to gradient descent to optimize position.
	int num_iters = 100;
	int delta = 2;
	int totaldelta = 0;
	int cost;
	int lastCost = 9000; //initialize
    1c66:	18 e2       	ldi	r17, 0x28	; 40
    1c68:	81 2e       	mov	r8, r17
    1c6a:	13 e2       	ldi	r17, 0x23	; 35
    1c6c:	91 2e       	mov	r9, r17
	move(40,LEFT,dist360,true);

	//on approach of end, read values again. Use alternative to gradient descent to optimize position.
	int num_iters = 100;
	int delta = 2;
	int totaldelta = 0;
    1c6e:	aa 24       	eor	r10, r10
    1c70:	bb 24       	eor	r11, r11
	//turn a guess value for 360 degrees.
	move(40,LEFT,dist360,true);

	//on approach of end, read values again. Use alternative to gradient descent to optimize position.
	int num_iters = 100;
	int delta = 2;
    1c72:	02 e0       	ldi	r16, 0x02	; 2
    1c74:	10 e0       	ldi	r17, 0x00	; 0
	int alpha = 80;//learning rate
	for(int i=0;i<num_iters;i++)
	{

		int input[4] = {readAvgADC(ADC_4,5),readAvgADC(ADC_3,5),readAvgADC(ADC_5,5),readAvgADC(ADC_2,5)};
		cost = costFunction(input,origin);
    1c76:	1e 01       	movw	r2, r28
    1c78:	08 94       	sec
    1c7a:	21 1c       	adc	r2, r1
    1c7c:	31 1c       	adc	r3, r1
    1c7e:	01 c0       	rjmp	.+2      	; 0x1c82 <calibrate+0x9c>
	int delta = 2;
	int totaldelta = 0;
	int cost;
	int lastCost = 9000; //initialize
	int alpha = 80;//learning rate
	for(int i=0;i<num_iters;i++)
    1c80:	47 01       	movw	r8, r14
	{

		int input[4] = {readAvgADC(ADC_4,5),readAvgADC(ADC_3,5),readAvgADC(ADC_5,5),readAvgADC(ADC_2,5)};
    1c82:	84 e0       	ldi	r24, 0x04	; 4
    1c84:	65 e0       	ldi	r22, 0x05	; 5
    1c86:	0e 94 c7 15 	call	0x2b8e	; 0x2b8e <readAvgADC>
    1c8a:	7c 01       	movw	r14, r24
    1c8c:	83 e0       	ldi	r24, 0x03	; 3
    1c8e:	65 e0       	ldi	r22, 0x05	; 5
    1c90:	0e 94 c7 15 	call	0x2b8e	; 0x2b8e <readAvgADC>
    1c94:	3c 01       	movw	r6, r24
    1c96:	85 e0       	ldi	r24, 0x05	; 5
    1c98:	65 e0       	ldi	r22, 0x05	; 5
    1c9a:	0e 94 c7 15 	call	0x2b8e	; 0x2b8e <readAvgADC>
    1c9e:	2c 01       	movw	r4, r24
    1ca0:	82 e0       	ldi	r24, 0x02	; 2
    1ca2:	65 e0       	ldi	r22, 0x05	; 5
    1ca4:	0e 94 c7 15 	call	0x2b8e	; 0x2b8e <readAvgADC>
    1ca8:	fa 86       	std	Y+10, r15	; 0x0a
    1caa:	e9 86       	std	Y+9, r14	; 0x09
    1cac:	7c 86       	std	Y+12, r7	; 0x0c
    1cae:	6b 86       	std	Y+11, r6	; 0x0b
    1cb0:	5e 86       	std	Y+14, r5	; 0x0e
    1cb2:	4d 86       	std	Y+13, r4	; 0x0d
    1cb4:	98 8b       	std	Y+16, r25	; 0x10
    1cb6:	8f 87       	std	Y+15, r24	; 0x0f
		cost = costFunction(input,origin);
    1cb8:	ce 01       	movw	r24, r28
    1cba:	09 96       	adiw	r24, 0x09	; 9
    1cbc:	b1 01       	movw	r22, r2
    1cbe:	0e 94 d6 0d 	call	0x1bac	; 0x1bac <costFunction>
    1cc2:	7c 01       	movw	r14, r24

		writeString_P("cost:");
    1cc4:	8e eb       	ldi	r24, 0xBE	; 190
    1cc6:	90 e0       	ldi	r25, 0x00	; 0
    1cc8:	0e 94 9a 05 	call	0xb34	; 0xb34 <writeNStringP>
		writeInteger(cost,10);
    1ccc:	c7 01       	movw	r24, r14
    1cce:	6a e0       	ldi	r22, 0x0A	; 10
    1cd0:	0e 94 c5 05 	call	0xb8a	; 0xb8a <writeInteger>
		writeString("\n");
    1cd4:	86 e7       	ldi	r24, 0x76	; 118
    1cd6:	90 e0       	ldi	r25, 0x00	; 0
    1cd8:	0e 94 86 05 	call	0xb0c	; 0xb0c <writeString>

		move(40,3 - (delta>0),abs(delta),true);
    1cdc:	10 16       	cp	r1, r16
    1cde:	11 06       	cpc	r1, r17
    1ce0:	14 f4       	brge	.+4      	; 0x1ce6 <calibrate+0x100>
    1ce2:	62 e0       	ldi	r22, 0x02	; 2
    1ce4:	01 c0       	rjmp	.+2      	; 0x1ce8 <calibrate+0x102>
    1ce6:	63 e0       	ldi	r22, 0x03	; 3
    1ce8:	a8 01       	movw	r20, r16
    1cea:	17 ff       	sbrs	r17, 7
    1cec:	04 c0       	rjmp	.+8      	; 0x1cf6 <calibrate+0x110>
    1cee:	44 27       	eor	r20, r20
    1cf0:	55 27       	eor	r21, r21
    1cf2:	40 1b       	sub	r20, r16
    1cf4:	51 0b       	sbc	r21, r17
    1cf6:	88 e2       	ldi	r24, 0x28	; 40
    1cf8:	21 e0       	ldi	r18, 0x01	; 1
    1cfa:	0e 94 5e 0b 	call	0x16bc	; 0x16bc <move>
		totaldelta += delta;
    1cfe:	a0 0e       	add	r10, r16
    1d00:	b1 1e       	adc	r11, r17
		writeString_P("totaldelta:");
    1d02:	82 eb       	ldi	r24, 0xB2	; 178
    1d04:	90 e0       	ldi	r25, 0x00	; 0
    1d06:	0e 94 9a 05 	call	0xb34	; 0xb34 <writeNStringP>
		writeInteger(totaldelta,10);
    1d0a:	c5 01       	movw	r24, r10
    1d0c:	6a e0       	ldi	r22, 0x0A	; 10
    1d0e:	0e 94 c5 05 	call	0xb8a	; 0xb8a <writeInteger>
		writeString("\n");
    1d12:	86 e7       	ldi	r24, 0x76	; 118
    1d14:	90 e0       	ldi	r25, 0x00	; 0
    1d16:	0e 94 86 05 	call	0xb0c	; 0xb0c <writeString>

		if (i==0) {lastCost = cost;continue;}
    1d1a:	c1 14       	cp	r12, r1
    1d1c:	d1 04       	cpc	r13, r1
    1d1e:	61 f1       	breq	.+88     	; 0x1d78 <calibrate+0x192>
		delta = (abs(lastCost-cost)/alpha) * ((lastCost-cost>=0) ? 1 : -1);
    1d20:	94 01       	movw	r18, r8
    1d22:	2e 19       	sub	r18, r14
    1d24:	3f 09       	sbc	r19, r15
    1d26:	c9 01       	movw	r24, r18
    1d28:	37 ff       	sbrs	r19, 7
    1d2a:	04 c0       	rjmp	.+8      	; 0x1d34 <calibrate+0x14e>
    1d2c:	88 27       	eor	r24, r24
    1d2e:	99 27       	eor	r25, r25
    1d30:	82 1b       	sub	r24, r18
    1d32:	93 0b       	sbc	r25, r19
    1d34:	60 e5       	ldi	r22, 0x50	; 80
    1d36:	70 e0       	ldi	r23, 0x00	; 0
    1d38:	0e 94 93 1a 	call	0x3526	; 0x3526 <__divmodhi4>
    1d3c:	37 fd       	sbrc	r19, 7
    1d3e:	03 c0       	rjmp	.+6      	; 0x1d46 <calibrate+0x160>
    1d40:	81 e0       	ldi	r24, 0x01	; 1
    1d42:	90 e0       	ldi	r25, 0x00	; 0
    1d44:	02 c0       	rjmp	.+4      	; 0x1d4a <calibrate+0x164>
    1d46:	8f ef       	ldi	r24, 0xFF	; 255
    1d48:	9f ef       	ldi	r25, 0xFF	; 255
    1d4a:	86 9f       	mul	r24, r22
    1d4c:	80 01       	movw	r16, r0
    1d4e:	87 9f       	mul	r24, r23
    1d50:	10 0d       	add	r17, r0
    1d52:	96 9f       	mul	r25, r22
    1d54:	10 0d       	add	r17, r0
    1d56:	11 24       	eor	r1, r1

		writeString_P("delta:");
    1d58:	8b ea       	ldi	r24, 0xAB	; 171
    1d5a:	90 e0       	ldi	r25, 0x00	; 0
    1d5c:	0e 94 9a 05 	call	0xb34	; 0xb34 <writeNStringP>
		writeInteger(delta,10);
    1d60:	c8 01       	movw	r24, r16
    1d62:	6a e0       	ldi	r22, 0x0A	; 10
    1d64:	0e 94 c5 05 	call	0xb8a	; 0xb8a <writeInteger>
		writeString("\n");
    1d68:	86 e7       	ldi	r24, 0x76	; 118
    1d6a:	90 e0       	ldi	r25, 0x00	; 0
    1d6c:	0e 94 86 05 	call	0xb0c	; 0xb0c <writeString>

		lastCost = cost;

		if (cost < 800/alpha) break;
    1d70:	8a e0       	ldi	r24, 0x0A	; 10
    1d72:	e8 16       	cp	r14, r24
    1d74:	f1 04       	cpc	r15, r1
    1d76:	44 f0       	brlt	.+16     	; 0x1d88 <calibrate+0x1a2>
	int delta = 2;
	int totaldelta = 0;
	int cost;
	int lastCost = 9000; //initialize
	int alpha = 80;//learning rate
	for(int i=0;i<num_iters;i++)
    1d78:	08 94       	sec
    1d7a:	c1 1c       	adc	r12, r1
    1d7c:	d1 1c       	adc	r13, r1
    1d7e:	84 e6       	ldi	r24, 0x64	; 100
    1d80:	c8 16       	cp	r12, r24
    1d82:	d1 04       	cpc	r13, r1
    1d84:	09 f0       	breq	.+2      	; 0x1d88 <calibrate+0x1a2>
    1d86:	7c cf       	rjmp	.-264    	; 0x1c80 <calibrate+0x9a>

		lastCost = cost;

		if (cost < 800/alpha) break;
	}
	totaldelta+=delta; //add last delta.
    1d88:	0a 0d       	add	r16, r10
    1d8a:	1b 1d       	adc	r17, r11
	dist360+=totaldelta;
    1d8c:	80 91 78 00 	lds	r24, 0x0078
    1d90:	90 91 79 00 	lds	r25, 0x0079
    1d94:	80 0f       	add	r24, r16
    1d96:	91 1f       	adc	r25, r17
    1d98:	90 93 79 00 	sts	0x0079, r25
    1d9c:	80 93 78 00 	sts	0x0078, r24
	writeString_P("dist360:");
    1da0:	82 ea       	ldi	r24, 0xA2	; 162
    1da2:	90 e0       	ldi	r25, 0x00	; 0
    1da4:	0e 94 9a 05 	call	0xb34	; 0xb34 <writeNStringP>
	writeInteger(dist360,10);
    1da8:	80 91 78 00 	lds	r24, 0x0078
    1dac:	90 91 79 00 	lds	r25, 0x0079
    1db0:	6a e0       	ldi	r22, 0x0A	; 10
    1db2:	0e 94 c5 05 	call	0xb8a	; 0xb8a <writeInteger>
	writeString("\n");
    1db6:	86 e7       	ldi	r24, 0x76	; 118
    1db8:	90 e0       	ldi	r25, 0x00	; 0
    1dba:	0e 94 86 05 	call	0xb0c	; 0xb0c <writeString>
}
    1dbe:	60 96       	adiw	r28, 0x10	; 16
    1dc0:	0f b6       	in	r0, 0x3f	; 63
    1dc2:	f8 94       	cli
    1dc4:	de bf       	out	0x3e, r29	; 62
    1dc6:	0f be       	out	0x3f, r0	; 63
    1dc8:	cd bf       	out	0x3d, r28	; 61
    1dca:	cf 91       	pop	r28
    1dcc:	df 91       	pop	r29
    1dce:	1f 91       	pop	r17
    1dd0:	0f 91       	pop	r16
    1dd2:	ff 90       	pop	r15
    1dd4:	ef 90       	pop	r14
    1dd6:	df 90       	pop	r13
    1dd8:	cf 90       	pop	r12
    1dda:	bf 90       	pop	r11
    1ddc:	af 90       	pop	r10
    1dde:	9f 90       	pop	r9
    1de0:	8f 90       	pop	r8
    1de2:	7f 90       	pop	r7
    1de4:	6f 90       	pop	r6
    1de6:	5f 90       	pop	r5
    1de8:	4f 90       	pop	r4
    1dea:	3f 90       	pop	r3
    1dec:	2f 90       	pop	r2
    1dee:	08 95       	ret

00001df0 <searchForBeacon>:

void searchForBeacon(void)
{
	show_LOOKINGFORBEACON();
    1df0:	0e 94 42 19 	call	0x3284	; 0x3284 <show_LOOKINGFORBEACON>
	detecting = true;
    1df4:	81 e0       	ldi	r24, 0x01	; 1
    1df6:	80 93 09 01 	sts	0x0109, r24
	mSleep(1500);
    1dfa:	8c ed       	ldi	r24, 0xDC	; 220
    1dfc:	95 e0       	ldi	r25, 0x05	; 5
    1dfe:	0e 94 f4 03 	call	0x7e8	; 0x7e8 <mSleep>
	detected = (getPressedKeyNumber() == 2);
    1e02:	0e 94 c7 02 	call	0x58e	; 0x58e <getPressedKeyNumber>
    1e06:	91 e0       	ldi	r25, 0x01	; 1
    1e08:	82 30       	cpi	r24, 0x02	; 2
    1e0a:	09 f0       	breq	.+2      	; 0x1e0e <searchForBeacon+0x1e>
    1e0c:	90 e0       	ldi	r25, 0x00	; 0
    1e0e:	90 93 08 01 	sts	0x0108, r25
	if (detected)
    1e12:	99 23       	and	r25, r25
    1e14:	31 f0       	breq	.+12     	; 0x1e22 <searchForBeacon+0x32>
	{
		found = true;
    1e16:	81 e0       	ldi	r24, 0x01	; 1
    1e18:	80 93 07 01 	sts	0x0107, r24
		show_BEHOLDTHEBEACONOFLIGHT();
    1e1c:	0e 94 4b 19 	call	0x3296	; 0x3296 <show_BEHOLDTHEBEACONOFLIGHT>
    1e20:	02 c0       	rjmp	.+4      	; 0x1e26 <searchForBeacon+0x36>
	}
	else
	{
		show_NOBEACONFOUND();
    1e22:	0e 94 54 19 	call	0x32a8	; 0x32a8 <show_NOBEACONFOUND>
	}
	detecting = false;
    1e26:	10 92 09 01 	sts	0x0109, r1
	mSleep(500);
    1e2a:	84 ef       	ldi	r24, 0xF4	; 244
    1e2c:	91 e0       	ldi	r25, 0x01	; 1
    1e2e:	0e 94 f4 03 	call	0x7e8	; 0x7e8 <mSleep>
}
    1e32:	08 95       	ret

00001e34 <find>:
 * find
 *
 *      Author: Ron Engels, Bart Peters
 */
void find(void)
{
    1e34:	df 92       	push	r13
    1e36:	ef 92       	push	r14
    1e38:	ff 92       	push	r15
    1e3a:	0f 93       	push	r16
    1e3c:	1f 93       	push	r17
	show_STARTEDFINDING();
    1e3e:	0e 94 be 18 	call	0x317c	; 0x317c <show_STARTEDFINDING>
					incEnum(dir,3);
					moveForward();
				}
				else
				{
					cells[cellCounter].a = t180;
    1e42:	13 e0       	ldi	r17, 0x03	; 3
			}
			else
			{
				if (!right)
				{
					cells[cellCounter].a = tRight;
    1e44:	ff 24       	eor	r15, r15
    1e46:	f3 94       	inc	r15
		}
		else
		{
			if(!front)
			{
				cells[cellCounter].a = mForward;
    1e48:	02 e0       	ldi	r16, 0x02	; 2
 *      Author: Ron Engels, Bart Peters
 */
void find(void)
{
	show_STARTEDFINDING();
	while (!found)
    1e4a:	93 c0       	rjmp	.+294    	; 0x1f72 <find+0x13e>
	{
		checkProcessEndedAbruptly();
    1e4c:	0e 94 a9 0b 	call	0x1752	; 0x1752 <checkProcessEndedAbruptly>
		bool left = wallIsLeft();
    1e50:	0e 94 ec 15 	call	0x2bd8	; 0x2bd8 <wallIsLeft>
    1e54:	d8 2e       	mov	r13, r24
		bool front = wallIsFront();
    1e56:	0e 94 22 16 	call	0x2c44	; 0x2c44 <wallIsFront>
    1e5a:	e8 2e       	mov	r14, r24
		bool right = wallIsRight();
    1e5c:	0e 94 07 16 	call	0x2c0e	; 0x2c0e <wallIsRight>

		if (!left)
    1e60:	dd 20       	and	r13, r13
    1e62:	c9 f4       	brne	.+50     	; 0x1e96 <find+0x62>
		{
			cells[cellCounter].a = tLeft;
    1e64:	80 91 01 01 	lds	r24, 0x0101
    1e68:	90 91 02 01 	lds	r25, 0x0102
    1e6c:	fc 01       	movw	r30, r24
    1e6e:	ee 0f       	add	r30, r30
    1e70:	ff 1f       	adc	r31, r31
    1e72:	a3 e0       	ldi	r26, 0x03	; 3
    1e74:	88 0f       	add	r24, r24
    1e76:	99 1f       	adc	r25, r25
    1e78:	aa 95       	dec	r26
    1e7a:	e1 f7       	brne	.-8      	; 0x1e74 <find+0x40>
    1e7c:	e8 0f       	add	r30, r24
    1e7e:	f9 1f       	adc	r31, r25
    1e80:	e4 50       	subi	r30, 0x04	; 4
    1e82:	fd 4f       	sbci	r31, 0xFD	; 253
    1e84:	10 86       	std	Z+8, r1	; 0x08
			onLeaveCellHandler();
    1e86:	0e 94 19 0d 	call	0x1a32	; 0x1a32 <onLeaveCellHandler>
			show_ACTION(tLeft);
    1e8a:	80 e0       	ldi	r24, 0x00	; 0
    1e8c:	0e 94 d9 18 	call	0x31b2	; 0x31b2 <show_ACTION>
			turnLeft();
    1e90:	0e 94 a1 13 	call	0x2742	; 0x2742 <turnLeft>
    1e94:	5e c0       	rjmp	.+188    	; 0x1f52 <find+0x11e>
			decEnum(dir,3);
			moveForward();
		}
		else
		{
			if(!front)
    1e96:	ee 20       	and	r14, r14
    1e98:	b9 f4       	brne	.+46     	; 0x1ec8 <find+0x94>
			{
				cells[cellCounter].a = mForward;
    1e9a:	80 91 01 01 	lds	r24, 0x0101
    1e9e:	90 91 02 01 	lds	r25, 0x0102
    1ea2:	fc 01       	movw	r30, r24
    1ea4:	ee 0f       	add	r30, r30
    1ea6:	ff 1f       	adc	r31, r31
    1ea8:	63 e0       	ldi	r22, 0x03	; 3
    1eaa:	88 0f       	add	r24, r24
    1eac:	99 1f       	adc	r25, r25
    1eae:	6a 95       	dec	r22
    1eb0:	e1 f7       	brne	.-8      	; 0x1eaa <find+0x76>
    1eb2:	e8 0f       	add	r30, r24
    1eb4:	f9 1f       	adc	r31, r25
    1eb6:	e4 50       	subi	r30, 0x04	; 4
    1eb8:	fd 4f       	sbci	r31, 0xFD	; 253
    1eba:	00 87       	std	Z+8, r16	; 0x08
				onLeaveCellHandler();
    1ebc:	0e 94 19 0d 	call	0x1a32	; 0x1a32 <onLeaveCellHandler>
				show_ACTION(mForward);
    1ec0:	82 e0       	ldi	r24, 0x02	; 2
    1ec2:	0e 94 d9 18 	call	0x31b2	; 0x31b2 <show_ACTION>
    1ec6:	4f c0       	rjmp	.+158    	; 0x1f66 <find+0x132>
    1ec8:	30 91 01 01 	lds	r19, 0x0101
    1ecc:	20 91 02 01 	lds	r18, 0x0102
				moveForward();
			}
			else
			{
				if (!right)
    1ed0:	88 23       	and	r24, r24
    1ed2:	f9 f4       	brne	.+62     	; 0x1f12 <find+0xde>
				{
					cells[cellCounter].a = tRight;
    1ed4:	83 2f       	mov	r24, r19
    1ed6:	92 2f       	mov	r25, r18
    1ed8:	fc 01       	movw	r30, r24
    1eda:	ee 0f       	add	r30, r30
    1edc:	ff 1f       	adc	r31, r31
    1ede:	43 e0       	ldi	r20, 0x03	; 3
    1ee0:	88 0f       	add	r24, r24
    1ee2:	99 1f       	adc	r25, r25
    1ee4:	4a 95       	dec	r20
    1ee6:	e1 f7       	brne	.-8      	; 0x1ee0 <find+0xac>
    1ee8:	e8 0f       	add	r30, r24
    1eea:	f9 1f       	adc	r31, r25
    1eec:	e4 50       	subi	r30, 0x04	; 4
    1eee:	fd 4f       	sbci	r31, 0xFD	; 253
    1ef0:	f0 86       	std	Z+8, r15	; 0x08
					onLeaveCellHandler();
    1ef2:	0e 94 19 0d 	call	0x1a32	; 0x1a32 <onLeaveCellHandler>
					show_ACTION(tRight);
    1ef6:	81 e0       	ldi	r24, 0x01	; 1
    1ef8:	0e 94 d9 18 	call	0x31b2	; 0x31b2 <show_ACTION>
					turnRight();
    1efc:	0e 94 b7 13 	call	0x276e	; 0x276e <turnRight>
					incEnum(dir,3);
    1f00:	80 91 fb 02 	lds	r24, 0x02FB
    1f04:	83 30       	cpi	r24, 0x03	; 3
    1f06:	19 f4       	brne	.+6      	; 0x1f0e <find+0xda>
    1f08:	10 92 fb 02 	sts	0x02FB, r1
    1f0c:	2c c0       	rjmp	.+88     	; 0x1f66 <find+0x132>
    1f0e:	8f 5f       	subi	r24, 0xFF	; 255
    1f10:	28 c0       	rjmp	.+80     	; 0x1f62 <find+0x12e>
					moveForward();
				}
				else
				{
					cells[cellCounter].a = t180;
    1f12:	83 2f       	mov	r24, r19
    1f14:	92 2f       	mov	r25, r18
    1f16:	fc 01       	movw	r30, r24
    1f18:	ee 0f       	add	r30, r30
    1f1a:	ff 1f       	adc	r31, r31
    1f1c:	23 e0       	ldi	r18, 0x03	; 3
    1f1e:	88 0f       	add	r24, r24
    1f20:	99 1f       	adc	r25, r25
    1f22:	2a 95       	dec	r18
    1f24:	e1 f7       	brne	.-8      	; 0x1f1e <find+0xea>
    1f26:	e8 0f       	add	r30, r24
    1f28:	f9 1f       	adc	r31, r25
    1f2a:	e4 50       	subi	r30, 0x04	; 4
    1f2c:	fd 4f       	sbci	r31, 0xFD	; 253
    1f2e:	10 87       	std	Z+8, r17	; 0x08
					onLeaveCellHandler();
    1f30:	0e 94 19 0d 	call	0x1a32	; 0x1a32 <onLeaveCellHandler>
					show_ACTION(t180);
    1f34:	83 e0       	ldi	r24, 0x03	; 3
    1f36:	0e 94 d9 18 	call	0x31b2	; 0x31b2 <show_ACTION>
					turn180();
    1f3a:	0e 94 cd 13 	call	0x279a	; 0x279a <turn180>
					decEnum(dir,3);
    1f3e:	80 91 fb 02 	lds	r24, 0x02FB
    1f42:	88 23       	and	r24, r24
    1f44:	19 f4       	brne	.+6      	; 0x1f4c <find+0x118>
    1f46:	10 93 fb 02 	sts	0x02FB, r17
    1f4a:	03 c0       	rjmp	.+6      	; 0x1f52 <find+0x11e>
    1f4c:	81 50       	subi	r24, 0x01	; 1
    1f4e:	80 93 fb 02 	sts	0x02FB, r24
					decEnum(dir,3);
    1f52:	80 91 fb 02 	lds	r24, 0x02FB
    1f56:	88 23       	and	r24, r24
    1f58:	19 f4       	brne	.+6      	; 0x1f60 <find+0x12c>
    1f5a:	10 93 fb 02 	sts	0x02FB, r17
    1f5e:	03 c0       	rjmp	.+6      	; 0x1f66 <find+0x132>
    1f60:	81 50       	subi	r24, 0x01	; 1
    1f62:	80 93 fb 02 	sts	0x02FB, r24
					moveForward();
    1f66:	0e 94 82 12 	call	0x2504	; 0x2504 <moveForward>
				}
			}
		}
		onEnterCellHandler();
    1f6a:	0e 94 be 0b 	call	0x177c	; 0x177c <onEnterCellHandler>
		searchForBeacon();
    1f6e:	0e 94 f8 0e 	call	0x1df0	; 0x1df0 <searchForBeacon>
 *      Author: Ron Engels, Bart Peters
 */
void find(void)
{
	show_STARTEDFINDING();
	while (!found)
    1f72:	80 91 07 01 	lds	r24, 0x0107
    1f76:	88 23       	and	r24, r24
    1f78:	09 f4       	brne	.+2      	; 0x1f7c <find+0x148>
    1f7a:	68 cf       	rjmp	.-304    	; 0x1e4c <find+0x18>
		}
		onEnterCellHandler();
		searchForBeacon();
		//TODO:check if victim found (flag in corecontrol. set by eventhandler receiveRC5Data)
	}
	totalCellsFindCourse = cellCounter;
    1f7c:	80 91 01 01 	lds	r24, 0x0101
    1f80:	90 91 02 01 	lds	r25, 0x0102
    1f84:	90 93 04 01 	sts	0x0104, r25
    1f88:	80 93 03 01 	sts	0x0103, r24
}
    1f8c:	1f 91       	pop	r17
    1f8e:	0f 91       	pop	r16
    1f90:	ff 90       	pop	r15
    1f92:	ef 90       	pop	r14
    1f94:	df 90       	pop	r13
    1f96:	08 95       	ret

00001f98 <removeEmptyElements>:

void removeEmptyElements(action *array, int * totalActions)
{
    1f98:	cf 93       	push	r28
    1f9a:	df 93       	push	r29
    1f9c:	eb 01       	movw	r28, r22
	int index = 0;
	for (int j = 0; j<*totalActions;j++)
    1f9e:	20 e0       	ldi	r18, 0x00	; 0
    1fa0:	30 e0       	ldi	r19, 0x00	; 0
			index = j;
			for (int i = index; i < sizeof(array); i++)
			{
				array[i] = array[i+1];
			}
			array[sizeof(array)-1] = EMPTY;
    1fa2:	64 e0       	ldi	r22, 0x04	; 4
}

void removeEmptyElements(action *array, int * totalActions)
{
	int index = 0;
	for (int j = 0; j<*totalActions;j++)
    1fa4:	21 c0       	rjmp	.+66     	; 0x1fe8 <removeEmptyElements+0x50>
	{
		if (array[j] == EMPTY)
    1fa6:	fc 01       	movw	r30, r24
    1fa8:	e2 0f       	add	r30, r18
    1faa:	f3 1f       	adc	r31, r19
    1fac:	70 81       	ld	r23, Z
    1fae:	74 30       	cpi	r23, 0x04	; 4
    1fb0:	a1 f4       	brne	.+40     	; 0x1fda <removeEmptyElements+0x42>
		{
			*totalActions = *totalActions-1;
    1fb2:	41 50       	subi	r20, 0x01	; 1
    1fb4:	50 40       	sbci	r21, 0x00	; 0
    1fb6:	59 83       	std	Y+1, r21	; 0x01
    1fb8:	48 83       	st	Y, r20
    1fba:	df 01       	movw	r26, r30
			index = j;
			for (int i = index; i < sizeof(array); i++)
    1fbc:	a9 01       	movw	r20, r18
    1fbe:	06 c0       	rjmp	.+12     	; 0x1fcc <removeEmptyElements+0x34>
			{
				array[i] = array[i+1];
    1fc0:	11 96       	adiw	r26, 0x01	; 1
    1fc2:	7c 91       	ld	r23, X
    1fc4:	11 97       	sbiw	r26, 0x01	; 1
    1fc6:	7d 93       	st	X+, r23
	{
		if (array[j] == EMPTY)
		{
			*totalActions = *totalActions-1;
			index = j;
			for (int i = index; i < sizeof(array); i++)
    1fc8:	4f 5f       	subi	r20, 0xFF	; 255
    1fca:	5f 4f       	sbci	r21, 0xFF	; 255
    1fcc:	42 30       	cpi	r20, 0x02	; 2
    1fce:	51 05       	cpc	r21, r1
    1fd0:	b8 f3       	brcs	.-18     	; 0x1fc0 <removeEmptyElements+0x28>
			{
				array[i] = array[i+1];
			}
			array[sizeof(array)-1] = EMPTY;
    1fd2:	dc 01       	movw	r26, r24
    1fd4:	11 96       	adiw	r26, 0x01	; 1
    1fd6:	6c 93       	st	X, r22
    1fd8:	11 97       	sbiw	r26, 0x01	; 1
		}
		if(array[j] == EMPTY) {j--;}
    1fda:	40 81       	ld	r20, Z
    1fdc:	44 30       	cpi	r20, 0x04	; 4
    1fde:	11 f4       	brne	.+4      	; 0x1fe4 <removeEmptyElements+0x4c>
    1fe0:	21 50       	subi	r18, 0x01	; 1
    1fe2:	30 40       	sbci	r19, 0x00	; 0
}

void removeEmptyElements(action *array, int * totalActions)
{
	int index = 0;
	for (int j = 0; j<*totalActions;j++)
    1fe4:	2f 5f       	subi	r18, 0xFF	; 255
    1fe6:	3f 4f       	sbci	r19, 0xFF	; 255
    1fe8:	48 81       	ld	r20, Y
    1fea:	59 81       	ldd	r21, Y+1	; 0x01
    1fec:	24 17       	cp	r18, r20
    1fee:	35 07       	cpc	r19, r21
    1ff0:	d4 f2       	brlt	.-76     	; 0x1fa6 <removeEmptyElements+0xe>
			}
			array[sizeof(array)-1] = EMPTY;
		}
		if(array[j] == EMPTY) {j--;}
	}
}
    1ff2:	df 91       	pop	r29
    1ff4:	cf 91       	pop	r28
    1ff6:	08 95       	ret

00001ff8 <returnToStart>:
 * returnToStart
 *
 *      Author: Ron Engels
 */
void returnToStart(void)
{
    1ff8:	2f 92       	push	r2
    1ffa:	3f 92       	push	r3
    1ffc:	4f 92       	push	r4
    1ffe:	5f 92       	push	r5
    2000:	7f 92       	push	r7
    2002:	8f 92       	push	r8
    2004:	9f 92       	push	r9
    2006:	af 92       	push	r10
    2008:	bf 92       	push	r11
    200a:	cf 92       	push	r12
    200c:	df 92       	push	r13
    200e:	ef 92       	push	r14
    2010:	ff 92       	push	r15
    2012:	0f 93       	push	r16
    2014:	1f 93       	push	r17
    2016:	df 93       	push	r29
    2018:	cf 93       	push	r28
    201a:	cd b7       	in	r28, 0x3d	; 61
    201c:	de b7       	in	r29, 0x3e	; 62
    201e:	c5 56       	subi	r28, 0x65	; 101
    2020:	d0 40       	sbci	r29, 0x00	; 0
    2022:	0f b6       	in	r0, 0x3f	; 63
    2024:	f8 94       	cli
    2026:	de bf       	out	0x3e, r29	; 62
    2028:	0f be       	out	0x3f, r0	; 63
    202a:	cd bf       	out	0x3d, r28	; 61

	{
		action actions[MAX_FIELD_SIZE*MAX_FIELD_SIZE];
		//make a seperate array of commands and extract data from the cells array into it.
		int offset = 0;
		for(i = 0; i<totalCellsFindCourse+offset;i++)
    202c:	60 91 03 01 	lds	r22, 0x0103
    2030:	70 91 04 01 	lds	r23, 0x0104
	int i = 0;

	{
		action actions[MAX_FIELD_SIZE*MAX_FIELD_SIZE];
		//make a seperate array of commands and extract data from the cells array into it.
		int offset = 0;
    2034:	20 e0       	ldi	r18, 0x00	; 0
    2036:	30 e0       	ldi	r19, 0x00	; 0
		for(i = 0; i<totalCellsFindCourse+offset;i++)
    2038:	80 e0       	ldi	r24, 0x00	; 0
    203a:	90 e0       	ldi	r25, 0x00	; 0
		{
			actions[i] = cells[i-offset].a;
    203c:	ae 01       	movw	r20, r28
    203e:	4c 5c       	subi	r20, 0xCC	; 204
    2040:	5f 4f       	sbci	r21, 0xFF	; 255
				if (actions[i]==tLeft) actions[i]=tRight;
				if (actions[i]==tRight) actions[i]=tLeft;
				i++;

				//add a mForward after every tLeft, tRight and t180.
				actions[i] = mForward;
    2042:	12 e0       	ldi	r17, 0x02	; 2
		for(i = 0; i<totalCellsFindCourse+offset;i++)
		{
			actions[i] = cells[i-offset].a;
			if (actions[i]==tLeft || actions[i]==tRight || actions[i]==t180)
			{
				if (actions[i]==tLeft) actions[i]=tRight;
    2044:	01 e0       	ldi	r16, 0x01	; 1

	{
		action actions[MAX_FIELD_SIZE*MAX_FIELD_SIZE];
		//make a seperate array of commands and extract data from the cells array into it.
		int offset = 0;
		for(i = 0; i<totalCellsFindCourse+offset;i++)
    2046:	2c c0       	rjmp	.+88     	; 0x20a0 <returnToStart+0xa8>
		{
			actions[i] = cells[i-offset].a;
    2048:	dc 01       	movw	r26, r24
    204a:	a2 1b       	sub	r26, r18
    204c:	b3 0b       	sbc	r27, r19
    204e:	fd 01       	movw	r30, r26
    2050:	ee 0f       	add	r30, r30
    2052:	ff 1f       	adc	r31, r31
    2054:	aa 0f       	add	r26, r26
    2056:	bb 1f       	adc	r27, r27
    2058:	aa 0f       	add	r26, r26
    205a:	bb 1f       	adc	r27, r27
    205c:	aa 0f       	add	r26, r26
    205e:	bb 1f       	adc	r27, r27
    2060:	ea 0f       	add	r30, r26
    2062:	fb 1f       	adc	r31, r27
    2064:	e4 50       	subi	r30, 0x04	; 4
    2066:	fd 4f       	sbci	r31, 0xFD	; 253
    2068:	a0 85       	ldd	r26, Z+8	; 0x08
    206a:	fa 01       	movw	r30, r20
    206c:	e8 0f       	add	r30, r24
    206e:	f9 1f       	adc	r31, r25
    2070:	a0 83       	st	Z, r26
			if (actions[i]==tLeft || actions[i]==tRight || actions[i]==t180)
    2072:	a2 30       	cpi	r26, 0x02	; 2
    2074:	18 f0       	brcs	.+6      	; 0x207c <returnToStart+0x84>
    2076:	a3 30       	cpi	r26, 0x03	; 3
    2078:	91 f4       	brne	.+36     	; 0x209e <returnToStart+0xa6>
    207a:	03 c0       	rjmp	.+6      	; 0x2082 <returnToStart+0x8a>
			{
				if (actions[i]==tLeft) actions[i]=tRight;
    207c:	aa 23       	and	r26, r26
    207e:	09 f4       	brne	.+2      	; 0x2082 <returnToStart+0x8a>
    2080:	00 83       	st	Z, r16
				if (actions[i]==tRight) actions[i]=tLeft;
    2082:	fa 01       	movw	r30, r20
    2084:	e8 0f       	add	r30, r24
    2086:	f9 1f       	adc	r31, r25
    2088:	a0 81       	ld	r26, Z
    208a:	a1 30       	cpi	r26, 0x01	; 1
    208c:	09 f4       	brne	.+2      	; 0x2090 <returnToStart+0x98>
    208e:	10 82       	st	Z, r1
				i++;
    2090:	01 96       	adiw	r24, 0x01	; 1

				//add a mForward after every tLeft, tRight and t180.
				actions[i] = mForward;
    2092:	fa 01       	movw	r30, r20
    2094:	e8 0f       	add	r30, r24
    2096:	f9 1f       	adc	r31, r25
    2098:	10 83       	st	Z, r17
				offset++;
    209a:	2f 5f       	subi	r18, 0xFF	; 255
    209c:	3f 4f       	sbci	r19, 0xFF	; 255

	{
		action actions[MAX_FIELD_SIZE*MAX_FIELD_SIZE];
		//make a seperate array of commands and extract data from the cells array into it.
		int offset = 0;
		for(i = 0; i<totalCellsFindCourse+offset;i++)
    209e:	01 96       	adiw	r24, 0x01	; 1
    20a0:	f9 01       	movw	r30, r18
    20a2:	e6 0f       	add	r30, r22
    20a4:	f7 1f       	adc	r31, r23
    20a6:	8e 17       	cp	r24, r30
    20a8:	9f 07       	cpc	r25, r31
    20aa:	74 f2       	brlt	.-100    	; 0x2048 <returnToStart+0x50>
				actions[i] = mForward;
				offset++;
			}
		}
		//reverse actions
		totalActions = i+1;
    20ac:	01 96       	adiw	r24, 0x01	; 1
    20ae:	9a 83       	std	Y+2, r25	; 0x02
    20b0:	89 83       	std	Y+1, r24	; 0x01
		for (int j=0;j<totalCellsFindCourse;j++)
		{
			invActions[j] = actions[totalActions-i-1];
    20b2:	2c a9       	ldd	r18, Y+52	; 0x34
    20b4:	fe 01       	movw	r30, r28
    20b6:	33 96       	adiw	r30, 0x03	; 3
				offset++;
			}
		}
		//reverse actions
		totalActions = i+1;
		for (int j=0;j<totalCellsFindCourse;j++)
    20b8:	80 e0       	ldi	r24, 0x00	; 0
    20ba:	90 e0       	ldi	r25, 0x00	; 0
    20bc:	02 c0       	rjmp	.+4      	; 0x20c2 <returnToStart+0xca>
		{
			invActions[j] = actions[totalActions-i-1];
    20be:	21 93       	st	Z+, r18
				offset++;
			}
		}
		//reverse actions
		totalActions = i+1;
		for (int j=0;j<totalCellsFindCourse;j++)
    20c0:	01 96       	adiw	r24, 0x01	; 1
    20c2:	86 17       	cp	r24, r22
    20c4:	97 07       	cpc	r25, r23
    20c6:	dc f3       	brlt	.-10     	; 0x20be <returnToStart+0xc6>
    20c8:	6a c1       	rjmp	.+724    	; 0x239e <returnToStart+0x3a6>
		optimizationsInLoop = 0;//reset

		//m <- RR | LL
		for(int b = 0; b<totalActions-1/*do not go over the last element since it has no follower.*/;b++)
		{
			if (invActions[b]==tRight && invActions[b+1]==tRight)
    20ca:	f8 01       	movw	r30, r16
    20cc:	e8 0f       	add	r30, r24
    20ce:	f9 1f       	adc	r31, r25
    20d0:	40 81       	ld	r20, Z
    20d2:	41 30       	cpi	r20, 0x01	; 1
    20d4:	51 f4       	brne	.+20     	; 0x20ea <returnToStart+0xf2>
    20d6:	ac 01       	movw	r20, r24
    20d8:	4f 5f       	subi	r20, 0xFF	; 255
    20da:	5f 4f       	sbci	r21, 0xFF	; 255
    20dc:	d8 01       	movw	r26, r16
    20de:	a4 0f       	add	r26, r20
    20e0:	b5 1f       	adc	r27, r21
    20e2:	6c 91       	ld	r22, X
    20e4:	61 30       	cpi	r22, 0x01	; 1
    20e6:	91 f4       	brne	.+36     	; 0x210c <returnToStart+0x114>
    20e8:	0b c0       	rjmp	.+22     	; 0x2100 <returnToStart+0x108>
				invActions[b] = t180;
				invActions[b+1] = EMPTY;
				b++;//skip next element since it's EMPTY.
			}
			else
			if (invActions[b]==tLeft && invActions[b+1]==tLeft)
    20ea:	44 23       	and	r20, r20
    20ec:	79 f4       	brne	.+30     	; 0x210c <returnToStart+0x114>
    20ee:	ac 01       	movw	r20, r24
    20f0:	4f 5f       	subi	r20, 0xFF	; 255
    20f2:	5f 4f       	sbci	r21, 0xFF	; 255
    20f4:	d8 01       	movw	r26, r16
    20f6:	a4 0f       	add	r26, r20
    20f8:	b5 1f       	adc	r27, r21
    20fa:	6c 91       	ld	r22, X
    20fc:	66 23       	and	r22, r22
    20fe:	31 f4       	brne	.+12     	; 0x210c <returnToStart+0x114>
			{
				optimizationsInLoop++;
    2100:	08 94       	sec
    2102:	e1 1c       	adc	r14, r1
    2104:	f1 1c       	adc	r15, r1
						softEndReturn = (mState == returning);
						end();
					}
				}

				invActions[b] = t180;
    2106:	c0 82       	st	Z, r12
				invActions[b+1] = EMPTY;
    2108:	dc 92       	st	X, r13
				b++;//skip next element since it's EMPTY.
    210a:	ca 01       	movw	r24, r20
	while (optimizationsInLoop!=0)
	{
		optimizationsInLoop = 0;//reset

		//m <- RR | LL
		for(int b = 0; b<totalActions-1/*do not go over the last element since it has no follower.*/;b++)
    210c:	01 96       	adiw	r24, 0x01	; 1
    210e:	82 17       	cp	r24, r18
    2110:	93 07       	cpc	r25, r19
    2112:	dc f2       	brlt	.-74     	; 0x20ca <returnToStart+0xd2>
				b++;//skip next element since it's EMPTY.
			}
		}

		//remove empty elements
		removeEmptyElements(invActions,&totalActions);
    2114:	c8 01       	movw	r24, r16
    2116:	b5 01       	movw	r22, r10
    2118:	0e 94 cc 0f 	call	0x1f98	; 0x1f98 <removeEmptyElements>

		//m <- LmR | RmL | FmF
		for(int b = 0; b<totalActions-2/*do not go over the last two elements since the 2nd last one has no followers.*/;b++)
    211c:	69 81       	ldd	r22, Y+1	; 0x01
    211e:	7a 81       	ldd	r23, Y+2	; 0x02
    2120:	62 50       	subi	r22, 0x02	; 2
    2122:	70 40       	sbci	r23, 0x00	; 0
    2124:	80 e0       	ldi	r24, 0x00	; 0
    2126:	90 e0       	ldi	r25, 0x00	; 0
    2128:	5e c0       	rjmp	.+188    	; 0x21e6 <returnToStart+0x1ee>
		{
			if (invActions[b]==tLeft && invActions[b+1]==t180 && invActions[b+2]==tRight )
    212a:	a8 01       	movw	r20, r16
    212c:	48 0f       	add	r20, r24
    212e:	59 1f       	adc	r21, r25
    2130:	da 01       	movw	r26, r20
    2132:	2c 91       	ld	r18, X
    2134:	22 23       	and	r18, r18
    2136:	c1 f4       	brne	.+48     	; 0x2168 <returnToStart+0x170>
    2138:	fc 01       	movw	r30, r24
    213a:	31 96       	adiw	r30, 0x01	; 1
    213c:	e0 0f       	add	r30, r16
    213e:	f1 1f       	adc	r31, r17
    2140:	80 80       	ld	r8, Z
    2142:	b8 2d       	mov	r27, r8
    2144:	b3 30       	cpi	r27, 0x03	; 3
    2146:	09 f0       	breq	.+2      	; 0x214a <returnToStart+0x152>
    2148:	4d c0       	rjmp	.+154    	; 0x21e4 <returnToStart+0x1ec>
    214a:	22 e0       	ldi	r18, 0x02	; 2
    214c:	42 2e       	mov	r4, r18
    214e:	51 2c       	mov	r5, r1
    2150:	48 0e       	add	r4, r24
    2152:	59 1e       	adc	r5, r25
    2154:	18 01       	movw	r2, r16
    2156:	24 0c       	add	r2, r4
    2158:	35 1c       	adc	r3, r5
    215a:	d1 01       	movw	r26, r2
    215c:	7c 90       	ld	r7, X
    215e:	b7 2d       	mov	r27, r7
    2160:	b1 30       	cpi	r27, 0x01	; 1
    2162:	09 f0       	breq	.+2      	; 0x2166 <returnToStart+0x16e>
    2164:	3f c0       	rjmp	.+126    	; 0x21e4 <returnToStart+0x1ec>
    2166:	35 c0       	rjmp	.+106    	; 0x21d2 <returnToStart+0x1da>
				invActions[b+1] = EMPTY;
				invActions[b+2] = EMPTY;
				b+=2;//skip next two elements since they're EMPTY.
			}
			else
			if (invActions[b]==tRight && invActions[b+1]==t180 && invActions[b+2]==tLeft )
    2168:	21 30       	cpi	r18, 0x01	; 1
    216a:	e1 f4       	brne	.+56     	; 0x21a4 <returnToStart+0x1ac>
    216c:	fc 01       	movw	r30, r24
    216e:	31 96       	adiw	r30, 0x01	; 1
    2170:	e0 0f       	add	r30, r16
    2172:	f1 1f       	adc	r31, r17
    2174:	80 80       	ld	r8, Z
    2176:	28 2d       	mov	r18, r8
    2178:	23 30       	cpi	r18, 0x03	; 3
    217a:	a1 f5       	brne	.+104    	; 0x21e4 <returnToStart+0x1ec>
    217c:	9c 01       	movw	r18, r24
    217e:	2e 5f       	subi	r18, 0xFE	; 254
    2180:	3f 4f       	sbci	r19, 0xFF	; 255
    2182:	28 01       	movw	r4, r16
    2184:	42 0e       	add	r4, r18
    2186:	53 1e       	adc	r5, r19
    2188:	d2 01       	movw	r26, r4
    218a:	7c 90       	ld	r7, X
    218c:	77 20       	and	r7, r7
    218e:	51 f5       	brne	.+84     	; 0x21e4 <returnToStart+0x1ec>
			{
				optimizationsInLoop++;
    2190:	08 94       	sec
    2192:	e1 1c       	adc	r14, r1
    2194:	f1 1c       	adc	r15, r1
				invActions[b] = t180;
    2196:	da 01       	movw	r26, r20
    2198:	8c 92       	st	X, r8
				invActions[b+1] = EMPTY;
    219a:	d0 82       	st	Z, r13
				invActions[b+2] = EMPTY;
    219c:	f2 01       	movw	r30, r4
    219e:	d0 82       	st	Z, r13
				b+=2;//skip next two elements since they're EMPTY.
    21a0:	c9 01       	movw	r24, r18
    21a2:	20 c0       	rjmp	.+64     	; 0x21e4 <returnToStart+0x1ec>
			}
			else
			if (invActions[b]==mForward && invActions[b+1]==t180 && invActions[b+2]==mForward )
    21a4:	22 30       	cpi	r18, 0x02	; 2
    21a6:	f1 f4       	brne	.+60     	; 0x21e4 <returnToStart+0x1ec>
    21a8:	fc 01       	movw	r30, r24
    21aa:	31 96       	adiw	r30, 0x01	; 1
    21ac:	e0 0f       	add	r30, r16
    21ae:	f1 1f       	adc	r31, r17
    21b0:	80 80       	ld	r8, Z
    21b2:	28 2d       	mov	r18, r8
    21b4:	23 30       	cpi	r18, 0x03	; 3
    21b6:	b1 f4       	brne	.+44     	; 0x21e4 <returnToStart+0x1ec>
    21b8:	b2 e0       	ldi	r27, 0x02	; 2
    21ba:	4b 2e       	mov	r4, r27
    21bc:	51 2c       	mov	r5, r1
    21be:	48 0e       	add	r4, r24
    21c0:	59 1e       	adc	r5, r25
    21c2:	18 01       	movw	r2, r16
    21c4:	24 0c       	add	r2, r4
    21c6:	35 1c       	adc	r3, r5
    21c8:	d1 01       	movw	r26, r2
    21ca:	7c 90       	ld	r7, X
    21cc:	b7 2d       	mov	r27, r7
    21ce:	b2 30       	cpi	r27, 0x02	; 2
    21d0:	49 f4       	brne	.+18     	; 0x21e4 <returnToStart+0x1ec>
			{
				optimizationsInLoop++;
    21d2:	08 94       	sec
    21d4:	e1 1c       	adc	r14, r1
    21d6:	f1 1c       	adc	r15, r1
				invActions[b] = t180;
    21d8:	da 01       	movw	r26, r20
    21da:	8c 92       	st	X, r8
				invActions[b+1] = EMPTY;
    21dc:	d0 82       	st	Z, r13
				invActions[b+2] = EMPTY;
    21de:	f1 01       	movw	r30, r2
    21e0:	d0 82       	st	Z, r13
				b+=2;//skip next two elements since they're EMPTY.
    21e2:	c2 01       	movw	r24, r4

		//remove empty elements
		removeEmptyElements(invActions,&totalActions);

		//m <- LmR | RmL | FmF
		for(int b = 0; b<totalActions-2/*do not go over the last two elements since the 2nd last one has no followers.*/;b++)
    21e4:	01 96       	adiw	r24, 0x01	; 1
    21e6:	86 17       	cp	r24, r22
    21e8:	97 07       	cpc	r25, r23
    21ea:	0c f4       	brge	.+2      	; 0x21ee <returnToStart+0x1f6>
    21ec:	9e cf       	rjmp	.-196    	; 0x212a <returnToStart+0x132>
				b+=2;//skip next two elements since they're EMPTY.
			}
		}

		//remove empty elements
		removeEmptyElements(invActions,&totalActions);
    21ee:	c8 01       	movw	r24, r16
    21f0:	b5 01       	movw	r22, r10
    21f2:	0e 94 cc 0f 	call	0x1f98	; 0x1f98 <removeEmptyElements>

		//R <- Lm || mL
		//L <- Rm || mR
		for(int b = 0; b<totalActions-1/*do not go over the last element since it has no follower.*/;b++)
    21f6:	49 81       	ldd	r20, Y+1	; 0x01
    21f8:	5a 81       	ldd	r21, Y+2	; 0x02
    21fa:	41 50       	subi	r20, 0x01	; 1
    21fc:	50 40       	sbci	r21, 0x00	; 0
    21fe:	80 e0       	ldi	r24, 0x00	; 0
    2200:	90 e0       	ldi	r25, 0x00	; 0
    2202:	35 c0       	rjmp	.+106    	; 0x226e <returnToStart+0x276>
		{
			if (invActions[b]==tLeft && invActions[b+1]==t180)
    2204:	f8 01       	movw	r30, r16
    2206:	e8 0f       	add	r30, r24
    2208:	f9 1f       	adc	r31, r25
    220a:	20 81       	ld	r18, Z
    220c:	22 23       	and	r18, r18
    220e:	51 f4       	brne	.+20     	; 0x2224 <returnToStart+0x22c>
    2210:	9c 01       	movw	r18, r24
    2212:	2f 5f       	subi	r18, 0xFF	; 255
    2214:	3f 4f       	sbci	r19, 0xFF	; 255
    2216:	d8 01       	movw	r26, r16
    2218:	a2 0f       	add	r26, r18
    221a:	b3 1f       	adc	r27, r19
    221c:	6c 91       	ld	r22, X
    221e:	63 30       	cpi	r22, 0x03	; 3
    2220:	29 f5       	brne	.+74     	; 0x226c <returnToStart+0x274>
    2222:	0b c0       	rjmp	.+22     	; 0x223a <returnToStart+0x242>
				invActions[b] = tRight;
				invActions[b+1] = EMPTY;
				b++;//skip next element since it's EMPTY.
			}
			else
			if (invActions[b]==t180 && invActions[b+1]==tLeft)
    2224:	23 30       	cpi	r18, 0x03	; 3
    2226:	71 f4       	brne	.+28     	; 0x2244 <returnToStart+0x24c>
    2228:	9c 01       	movw	r18, r24
    222a:	2f 5f       	subi	r18, 0xFF	; 255
    222c:	3f 4f       	sbci	r19, 0xFF	; 255
    222e:	d8 01       	movw	r26, r16
    2230:	a2 0f       	add	r26, r18
    2232:	b3 1f       	adc	r27, r19
    2234:	6c 91       	ld	r22, X
    2236:	66 23       	and	r22, r22
    2238:	89 f4       	brne	.+34     	; 0x225c <returnToStart+0x264>
			{
				optimizationsInLoop++;
    223a:	08 94       	sec
    223c:	e1 1c       	adc	r14, r1
    223e:	f1 1c       	adc	r15, r1
				invActions[b] = tRight;
    2240:	90 82       	st	Z, r9
    2242:	12 c0       	rjmp	.+36     	; 0x2268 <returnToStart+0x270>
				invActions[b+1] = EMPTY;
				b++;//skip next element since it's EMPTY.
			}
			else
			if (invActions[b]==tRight && invActions[b+1]==t180)
    2244:	21 30       	cpi	r18, 0x01	; 1
    2246:	91 f4       	brne	.+36     	; 0x226c <returnToStart+0x274>
    2248:	9c 01       	movw	r18, r24
    224a:	2f 5f       	subi	r18, 0xFF	; 255
    224c:	3f 4f       	sbci	r19, 0xFF	; 255
    224e:	d8 01       	movw	r26, r16
    2250:	a2 0f       	add	r26, r18
    2252:	b3 1f       	adc	r27, r19
    2254:	6c 91       	ld	r22, X
    2256:	63 30       	cpi	r22, 0x03	; 3
    2258:	49 f4       	brne	.+18     	; 0x226c <returnToStart+0x274>
    225a:	02 c0       	rjmp	.+4      	; 0x2260 <returnToStart+0x268>
				invActions[b] = tLeft;
				invActions[b+1] = EMPTY;
				b++;//skip next element since it's EMPTY.
			}
			else
			if (invActions[b]==t180 && invActions[b+1]==tRight)
    225c:	61 30       	cpi	r22, 0x01	; 1
    225e:	31 f4       	brne	.+12     	; 0x226c <returnToStart+0x274>
			{
				optimizationsInLoop++;
    2260:	08 94       	sec
    2262:	e1 1c       	adc	r14, r1
    2264:	f1 1c       	adc	r15, r1
				invActions[b] = tLeft;
    2266:	10 82       	st	Z, r1
				invActions[b+1] = EMPTY;
    2268:	dc 92       	st	X, r13
				b++;//skip next element since it's EMPTY.
    226a:	c9 01       	movw	r24, r18
		//remove empty elements
		removeEmptyElements(invActions,&totalActions);

		//R <- Lm || mL
		//L <- Rm || mR
		for(int b = 0; b<totalActions-1/*do not go over the last element since it has no follower.*/;b++)
    226c:	01 96       	adiw	r24, 0x01	; 1
    226e:	84 17       	cp	r24, r20
    2270:	95 07       	cpc	r25, r21
    2272:	44 f2       	brlt	.-112    	; 0x2204 <returnToStart+0x20c>
			}
		}


		//remove empty elements
		removeEmptyElements(invActions,&totalActions);
    2274:	c8 01       	movw	r24, r16
    2276:	b5 01       	movw	r22, r10
    2278:	0e 94 cc 0f 	call	0x1f98	; 0x1f98 <removeEmptyElements>

		//e <- RL | LR | mm
		for(int b = 0; b<totalActions-1/*do not go over the last element since it has no follower.*/;b++)
    227c:	49 81       	ldd	r20, Y+1	; 0x01
    227e:	5a 81       	ldd	r21, Y+2	; 0x02
    2280:	41 50       	subi	r20, 0x01	; 1
    2282:	50 40       	sbci	r21, 0x00	; 0
    2284:	80 e0       	ldi	r24, 0x00	; 0
    2286:	90 e0       	ldi	r25, 0x00	; 0
    2288:	2e c0       	rjmp	.+92     	; 0x22e6 <returnToStart+0x2ee>
		{
			if (invActions[b]==tRight && invActions[b+1]==tLeft)
    228a:	f8 01       	movw	r30, r16
    228c:	e8 0f       	add	r30, r24
    228e:	f9 1f       	adc	r31, r25
    2290:	20 81       	ld	r18, Z
    2292:	21 30       	cpi	r18, 0x01	; 1
    2294:	51 f4       	brne	.+20     	; 0x22aa <returnToStart+0x2b2>
    2296:	9c 01       	movw	r18, r24
    2298:	2f 5f       	subi	r18, 0xFF	; 255
    229a:	3f 4f       	sbci	r19, 0xFF	; 255
    229c:	d8 01       	movw	r26, r16
    229e:	a2 0f       	add	r26, r18
    22a0:	b3 1f       	adc	r27, r19
    22a2:	6c 91       	ld	r22, X
    22a4:	66 23       	and	r22, r22
    22a6:	f1 f4       	brne	.+60     	; 0x22e4 <returnToStart+0x2ec>
    22a8:	17 c0       	rjmp	.+46     	; 0x22d8 <returnToStart+0x2e0>
				invActions[b] = EMPTY;
				invActions[b+1] = EMPTY;
				b++;//skip next element since it's EMPTY.
			}
			else
			if (invActions[b]==tLeft && invActions[b+1]==tRight)
    22aa:	22 23       	and	r18, r18
    22ac:	51 f4       	brne	.+20     	; 0x22c2 <returnToStart+0x2ca>
    22ae:	9c 01       	movw	r18, r24
    22b0:	2f 5f       	subi	r18, 0xFF	; 255
    22b2:	3f 4f       	sbci	r19, 0xFF	; 255
    22b4:	d8 01       	movw	r26, r16
    22b6:	a2 0f       	add	r26, r18
    22b8:	b3 1f       	adc	r27, r19
    22ba:	6c 91       	ld	r22, X
    22bc:	61 30       	cpi	r22, 0x01	; 1
    22be:	91 f4       	brne	.+36     	; 0x22e4 <returnToStart+0x2ec>
    22c0:	0b c0       	rjmp	.+22     	; 0x22d8 <returnToStart+0x2e0>
				invActions[b] = EMPTY;
				invActions[b+1] = EMPTY;
				b++;//skip next element since it's EMPTY.
			}
			else
			if (invActions[b]==t180 && invActions[b+1]==t180)
    22c2:	23 30       	cpi	r18, 0x03	; 3
    22c4:	79 f4       	brne	.+30     	; 0x22e4 <returnToStart+0x2ec>
    22c6:	9c 01       	movw	r18, r24
    22c8:	2f 5f       	subi	r18, 0xFF	; 255
    22ca:	3f 4f       	sbci	r19, 0xFF	; 255
    22cc:	d8 01       	movw	r26, r16
    22ce:	a2 0f       	add	r26, r18
    22d0:	b3 1f       	adc	r27, r19
    22d2:	6c 91       	ld	r22, X
    22d4:	63 30       	cpi	r22, 0x03	; 3
    22d6:	31 f4       	brne	.+12     	; 0x22e4 <returnToStart+0x2ec>
			{
				optimizationsInLoop++;
    22d8:	08 94       	sec
    22da:	e1 1c       	adc	r14, r1
    22dc:	f1 1c       	adc	r15, r1
				invActions[b] = EMPTY;
    22de:	d0 82       	st	Z, r13
				invActions[b+1] = EMPTY;
    22e0:	dc 92       	st	X, r13
				b++;//skip next element since it's EMPTY.
    22e2:	c9 01       	movw	r24, r18

		//remove empty elements
		removeEmptyElements(invActions,&totalActions);

		//e <- RL | LR | mm
		for(int b = 0; b<totalActions-1/*do not go over the last element since it has no follower.*/;b++)
    22e4:	01 96       	adiw	r24, 0x01	; 1
    22e6:	84 17       	cp	r24, r20
    22e8:	95 07       	cpc	r25, r21
    22ea:	7c f2       	brlt	.-98     	; 0x228a <returnToStart+0x292>
				b++;//skip next element since it's EMPTY.
			}
		}

		//remove empty elements
		removeEmptyElements(invActions,&totalActions);
    22ec:	c8 01       	movw	r24, r16
    22ee:	b5 01       	movw	r22, r10
    22f0:	0e 94 cc 0f 	call	0x1f98	; 0x1f98 <removeEmptyElements>


		//m <- LmL | RmR
		for(int b = 0; b<totalActions-2/*do not go over the last two elements since the 2nd last one has no followers.*/;b++)
    22f4:	69 81       	ldd	r22, Y+1	; 0x01
    22f6:	7a 81       	ldd	r23, Y+2	; 0x02
    22f8:	62 50       	subi	r22, 0x02	; 2
    22fa:	70 40       	sbci	r23, 0x00	; 0
    22fc:	80 e0       	ldi	r24, 0x00	; 0
    22fe:	90 e0       	ldi	r25, 0x00	; 0
    2300:	42 c0       	rjmp	.+132    	; 0x2386 <returnToStart+0x38e>
		{
			if (invActions[b]==tLeft && invActions[b+1]==t180 && invActions[b+2]==tLeft )
    2302:	a8 01       	movw	r20, r16
    2304:	48 0f       	add	r20, r24
    2306:	59 1f       	adc	r21, r25
    2308:	da 01       	movw	r26, r20
    230a:	2c 91       	ld	r18, X
    230c:	22 23       	and	r18, r18
    230e:	d9 f4       	brne	.+54     	; 0x2346 <returnToStart+0x34e>
    2310:	fc 01       	movw	r30, r24
    2312:	31 96       	adiw	r30, 0x01	; 1
    2314:	e0 0f       	add	r30, r16
    2316:	f1 1f       	adc	r31, r17
    2318:	20 81       	ld	r18, Z
    231a:	23 30       	cpi	r18, 0x03	; 3
    231c:	99 f5       	brne	.+102    	; 0x2384 <returnToStart+0x38c>
    231e:	9c 01       	movw	r18, r24
    2320:	2e 5f       	subi	r18, 0xFE	; 254
    2322:	3f 4f       	sbci	r19, 0xFF	; 255
    2324:	28 01       	movw	r4, r16
    2326:	42 0e       	add	r4, r18
    2328:	53 1e       	adc	r5, r19
    232a:	d2 01       	movw	r26, r4
    232c:	8c 90       	ld	r8, X
    232e:	88 20       	and	r8, r8
    2330:	49 f5       	brne	.+82     	; 0x2384 <returnToStart+0x38c>
			{
				optimizationsInLoop++;
    2332:	08 94       	sec
    2334:	e1 1c       	adc	r14, r1
    2336:	f1 1c       	adc	r15, r1
				invActions[b] = EMPTY;
    2338:	da 01       	movw	r26, r20
    233a:	dc 92       	st	X, r13
				invActions[b+1] = EMPTY;
    233c:	d0 82       	st	Z, r13
				invActions[b+2] = EMPTY;
    233e:	f2 01       	movw	r30, r4
    2340:	d0 82       	st	Z, r13
				b+=2;//skip next two elements since they're EMPTY.
    2342:	c9 01       	movw	r24, r18
    2344:	1f c0       	rjmp	.+62     	; 0x2384 <returnToStart+0x38c>
			}
			else
			if (invActions[b]==tRight && invActions[b+1]==t180 && invActions[b+2]==tRight )
    2346:	21 30       	cpi	r18, 0x01	; 1
    2348:	e9 f4       	brne	.+58     	; 0x2384 <returnToStart+0x38c>
    234a:	fc 01       	movw	r30, r24
    234c:	31 96       	adiw	r30, 0x01	; 1
    234e:	e0 0f       	add	r30, r16
    2350:	f1 1f       	adc	r31, r17
    2352:	20 81       	ld	r18, Z
    2354:	23 30       	cpi	r18, 0x03	; 3
    2356:	b1 f4       	brne	.+44     	; 0x2384 <returnToStart+0x38c>
    2358:	a2 e0       	ldi	r26, 0x02	; 2
    235a:	4a 2e       	mov	r4, r26
    235c:	51 2c       	mov	r5, r1
    235e:	48 0e       	add	r4, r24
    2360:	59 1e       	adc	r5, r25
    2362:	18 01       	movw	r2, r16
    2364:	24 0c       	add	r2, r4
    2366:	35 1c       	adc	r3, r5
    2368:	d1 01       	movw	r26, r2
    236a:	8c 90       	ld	r8, X
    236c:	b8 2d       	mov	r27, r8
    236e:	b1 30       	cpi	r27, 0x01	; 1
    2370:	49 f4       	brne	.+18     	; 0x2384 <returnToStart+0x38c>
			{
				optimizationsInLoop++;
    2372:	08 94       	sec
    2374:	e1 1c       	adc	r14, r1
    2376:	f1 1c       	adc	r15, r1
				invActions[b] = EMPTY;
    2378:	da 01       	movw	r26, r20
    237a:	dc 92       	st	X, r13
				invActions[b+1] = EMPTY;
    237c:	d0 82       	st	Z, r13
				invActions[b+2] = EMPTY;
    237e:	f1 01       	movw	r30, r2
    2380:	d0 82       	st	Z, r13
				b+=2;//skip next two elements since they're EMPTY.
    2382:	c2 01       	movw	r24, r4
		//remove empty elements
		removeEmptyElements(invActions,&totalActions);


		//m <- LmL | RmR
		for(int b = 0; b<totalActions-2/*do not go over the last two elements since the 2nd last one has no followers.*/;b++)
    2384:	01 96       	adiw	r24, 0x01	; 1
    2386:	86 17       	cp	r24, r22
    2388:	97 07       	cpc	r25, r23
    238a:	0c f4       	brge	.+2      	; 0x238e <returnToStart+0x396>
    238c:	ba cf       	rjmp	.-140    	; 0x2302 <returnToStart+0x30a>
				b+=2;//skip next two elements since they're EMPTY.
			}
		}

		//remove empty elements
		removeEmptyElements(invActions,&totalActions);
    238e:	c8 01       	movw	r24, r16
    2390:	b5 01       	movw	r22, r10
    2392:	0e 94 cc 0f 	call	0x1f98	; 0x1f98 <removeEmptyElements>


	//apply grammar rules dependent on their priority.

	int optimizationsInLoop = 10;//make sure its not 0;
	while (optimizationsInLoop!=0)
    2396:	e1 14       	cp	r14, r1
    2398:	f1 04       	cpc	r15, r1
    239a:	71 f4       	brne	.+28     	; 0x23b8 <returnToStart+0x3c0>
    239c:	16 c0       	rjmp	.+44     	; 0x23ca <returnToStart+0x3d2>
    239e:	8e 01       	movw	r16, r28
    23a0:	0d 5f       	subi	r16, 0xFD	; 253
    23a2:	1f 4f       	sbci	r17, 0xFF	; 255
						softEndReturn = (mState == returning);
						end();
					}
				}

				invActions[b] = t180;
    23a4:	43 e0       	ldi	r20, 0x03	; 3
    23a6:	c4 2e       	mov	r12, r20
				invActions[b+1] = EMPTY;
    23a8:	34 e0       	ldi	r19, 0x04	; 4
    23aa:	d3 2e       	mov	r13, r19
				b++;//skip next element since it's EMPTY.
			}
		}

		//remove empty elements
		removeEmptyElements(invActions,&totalActions);
    23ac:	5e 01       	movw	r10, r28
    23ae:	08 94       	sec
    23b0:	a1 1c       	adc	r10, r1
    23b2:	b1 1c       	adc	r11, r1
			}
			else
			if (invActions[b]==t180 && invActions[b+1]==tLeft)
			{
				optimizationsInLoop++;
				invActions[b] = tRight;
    23b4:	99 24       	eor	r9, r9
    23b6:	93 94       	inc	r9
	while (optimizationsInLoop!=0)
	{
		optimizationsInLoop = 0;//reset

		//m <- RR | LL
		for(int b = 0; b<totalActions-1/*do not go over the last element since it has no follower.*/;b++)
    23b8:	29 81       	ldd	r18, Y+1	; 0x01
    23ba:	3a 81       	ldd	r19, Y+2	; 0x02
    23bc:	21 50       	subi	r18, 0x01	; 1
    23be:	30 40       	sbci	r19, 0x00	; 0
    23c0:	80 e0       	ldi	r24, 0x00	; 0
    23c2:	90 e0       	ldi	r25, 0x00	; 0
    23c4:	ee 24       	eor	r14, r14
    23c6:	ff 24       	eor	r15, r15
    23c8:	a2 ce       	rjmp	.-700    	; 0x210e <returnToStart+0x116>
		//remove empty elements
		removeEmptyElements(invActions,&totalActions);
	}

	//execute
	cellCounter = 0;
    23ca:	10 92 02 01 	sts	0x0102, r1
    23ce:	10 92 01 01 	sts	0x0101, r1
    23d2:	25 e1       	ldi	r18, 0x15	; 21
    23d4:	e2 2e       	mov	r14, r18
    23d6:	21 e0       	ldi	r18, 0x01	; 1
    23d8:	f2 2e       	mov	r15, r18
	//set every returnscells[i] while moving through the course, dependent on the actions array.
	int k = 0;
    23da:	00 e0       	ldi	r16, 0x00	; 0
    23dc:	10 e0       	ldi	r17, 0x00	; 0
	int q = 0;
	while(k<totalActions)
	{
		checkProcessEndedAbruptly();
		action a = invActions[k];
    23de:	93 e0       	ldi	r25, 0x03	; 3
    23e0:	c9 2e       	mov	r12, r25
    23e2:	d1 2c       	mov	r13, r1
    23e4:	cc 0e       	add	r12, r28
    23e6:	dd 1e       	adc	r13, r29
		invCells[q].a = a;
		onLeaveCellHandler();
		switch (a)
		{
			case tLeft: show_ACTION(tLeft);turnLeft();decEnum(dir,3);k++;moveForward();break;
    23e8:	83 e0       	ldi	r24, 0x03	; 3
    23ea:	a8 2e       	mov	r10, r24
	//execute
	cellCounter = 0;
	//set every returnscells[i] while moving through the course, dependent on the actions array.
	int k = 0;
	int q = 0;
	while(k<totalActions)
    23ec:	44 c0       	rjmp	.+136    	; 0x2476 <returnToStart+0x47e>
	{
		checkProcessEndedAbruptly();
    23ee:	0e 94 a9 0b 	call	0x1752	; 0x1752 <checkProcessEndedAbruptly>
		action a = invActions[k];
    23f2:	f6 01       	movw	r30, r12
    23f4:	e0 0f       	add	r30, r16
    23f6:	f1 1f       	adc	r31, r17
    23f8:	80 81       	ld	r24, Z
		invCells[q].a = a;
    23fa:	d7 01       	movw	r26, r14
    23fc:	8c 93       	st	X, r24
		onLeaveCellHandler();
    23fe:	a6 96       	adiw	r28, 0x26	; 38
    2400:	8f af       	std	Y+63, r24	; 0x3f
    2402:	a6 97       	sbiw	r28, 0x26	; 38
    2404:	0e 94 19 0d 	call	0x1a32	; 0x1a32 <onLeaveCellHandler>
		switch (a)
    2408:	a6 96       	adiw	r28, 0x26	; 38
    240a:	8f ad       	ldd	r24, Y+63	; 0x3f
    240c:	a6 97       	sbiw	r28, 0x26	; 38
    240e:	81 30       	cpi	r24, 0x01	; 1
    2410:	99 f0       	breq	.+38     	; 0x2438 <returnToStart+0x440>
    2412:	81 30       	cpi	r24, 0x01	; 1
    2414:	18 f0       	brcs	.+6      	; 0x241c <returnToStart+0x424>
    2416:	82 30       	cpi	r24, 0x02	; 2
    2418:	31 f5       	brne	.+76     	; 0x2466 <returnToStart+0x46e>
    241a:	20 c0       	rjmp	.+64     	; 0x245c <returnToStart+0x464>
		{
			case tLeft: show_ACTION(tLeft);turnLeft();decEnum(dir,3);k++;moveForward();break;
    241c:	80 e0       	ldi	r24, 0x00	; 0
    241e:	0e 94 d9 18 	call	0x31b2	; 0x31b2 <show_ACTION>
    2422:	0e 94 a1 13 	call	0x2742	; 0x2742 <turnLeft>
    2426:	80 91 fb 02 	lds	r24, 0x02FB
    242a:	88 23       	and	r24, r24
    242c:	19 f4       	brne	.+6      	; 0x2434 <returnToStart+0x43c>
    242e:	a0 92 fb 02 	sts	0x02FB, r10
    2432:	11 c0       	rjmp	.+34     	; 0x2456 <returnToStart+0x45e>
    2434:	81 50       	subi	r24, 0x01	; 1
    2436:	0d c0       	rjmp	.+26     	; 0x2452 <returnToStart+0x45a>
			case tRight: show_ACTION(tRight);turnRight();incEnum(dir,3);k++;moveForward();break;
    2438:	81 e0       	ldi	r24, 0x01	; 1
    243a:	0e 94 d9 18 	call	0x31b2	; 0x31b2 <show_ACTION>
    243e:	0e 94 b7 13 	call	0x276e	; 0x276e <turnRight>
    2442:	80 91 fb 02 	lds	r24, 0x02FB
    2446:	83 30       	cpi	r24, 0x03	; 3
    2448:	19 f4       	brne	.+6      	; 0x2450 <returnToStart+0x458>
    244a:	10 92 fb 02 	sts	0x02FB, r1
    244e:	03 c0       	rjmp	.+6      	; 0x2456 <returnToStart+0x45e>
    2450:	8f 5f       	subi	r24, 0xFF	; 255
    2452:	80 93 fb 02 	sts	0x02FB, r24
    2456:	0f 5f       	subi	r16, 0xFF	; 255
    2458:	1f 4f       	sbci	r17, 0xFF	; 255
    245a:	03 c0       	rjmp	.+6      	; 0x2462 <returnToStart+0x46a>
			case mForward: show_ACTION(mForward);moveForward();break;
    245c:	82 e0       	ldi	r24, 0x02	; 2
    245e:	0e 94 d9 18 	call	0x31b2	; 0x31b2 <show_ACTION>
    2462:	0e 94 82 12 	call	0x2504	; 0x2504 <moveForward>
		}

		onEnterCellHandler();
    2466:	0e 94 be 0b 	call	0x177c	; 0x177c <onEnterCellHandler>
		k++;
    246a:	0f 5f       	subi	r16, 0xFF	; 255
    246c:	1f 4f       	sbci	r17, 0xFF	; 255
    246e:	ea e0       	ldi	r30, 0x0A	; 10
    2470:	f0 e0       	ldi	r31, 0x00	; 0
    2472:	ee 0e       	add	r14, r30
    2474:	ff 1e       	adc	r15, r31
	//execute
	cellCounter = 0;
	//set every returnscells[i] while moving through the course, dependent on the actions array.
	int k = 0;
	int q = 0;
	while(k<totalActions)
    2476:	89 81       	ldd	r24, Y+1	; 0x01
    2478:	9a 81       	ldd	r25, Y+2	; 0x02
    247a:	08 17       	cp	r16, r24
    247c:	19 07       	cpc	r17, r25
    247e:	0c f4       	brge	.+2      	; 0x2482 <returnToStart+0x48a>
    2480:	b6 cf       	rjmp	.-148    	; 0x23ee <returnToStart+0x3f6>

		onEnterCellHandler();
		k++;
		q++;
	}
}
    2482:	cb 59       	subi	r28, 0x9B	; 155
    2484:	df 4f       	sbci	r29, 0xFF	; 255
    2486:	0f b6       	in	r0, 0x3f	; 63
    2488:	f8 94       	cli
    248a:	de bf       	out	0x3e, r29	; 62
    248c:	0f be       	out	0x3f, r0	; 63
    248e:	cd bf       	out	0x3d, r28	; 61
    2490:	cf 91       	pop	r28
    2492:	df 91       	pop	r29
    2494:	1f 91       	pop	r17
    2496:	0f 91       	pop	r16
    2498:	ff 90       	pop	r15
    249a:	ef 90       	pop	r14
    249c:	df 90       	pop	r13
    249e:	cf 90       	pop	r12
    24a0:	bf 90       	pop	r11
    24a2:	af 90       	pop	r10
    24a4:	9f 90       	pop	r9
    24a6:	8f 90       	pop	r8
    24a8:	7f 90       	pop	r7
    24aa:	5f 90       	pop	r5
    24ac:	4f 90       	pop	r4
    24ae:	3f 90       	pop	r3
    24b0:	2f 90       	pop	r2
    24b2:	08 95       	ret

000024b4 <updateCoreControl>:



void updateCoreControl(void)
{
	switch (mState)
    24b4:	80 91 f8 02 	lds	r24, 0x02F8
    24b8:	82 30       	cpi	r24, 0x02	; 2
    24ba:	41 f0       	breq	.+16     	; 0x24cc <updateCoreControl+0x18>
    24bc:	83 30       	cpi	r24, 0x03	; 3
    24be:	61 f0       	breq	.+24     	; 0x24d8 <updateCoreControl+0x24>
    24c0:	81 30       	cpi	r24, 0x01	; 1
    24c2:	81 f4       	brne	.+32     	; 0x24e4 <updateCoreControl+0x30>
	{
		case calibrating: calibrate(); mState = finding;break;
    24c4:	0e 94 f3 0d 	call	0x1be6	; 0x1be6 <calibrate>
    24c8:	82 e0       	ldi	r24, 0x02	; 2
    24ca:	03 c0       	rjmp	.+6      	; 0x24d2 <updateCoreControl+0x1e>
		case finding: find(); mState = returning;break;
    24cc:	0e 94 1a 0f 	call	0x1e34	; 0x1e34 <find>
    24d0:	83 e0       	ldi	r24, 0x03	; 3
    24d2:	80 93 f8 02 	sts	0x02F8, r24
    24d6:	06 c0       	rjmp	.+12     	; 0x24e4 <updateCoreControl+0x30>
		case returning: returnToStart(); mState = undefined; end(); break;
    24d8:	0e 94 fc 0f 	call	0x1ff8	; 0x1ff8 <returnToStart>
    24dc:	10 92 f8 02 	sts	0x02F8, r1
    24e0:	0e 94 89 0b 	call	0x1712	; 0x1712 <end>
	}
	updatePositionControl();
    24e4:	0e 94 64 16 	call	0x2cc8	; 0x2cc8 <updatePositionControl>
	updateMoveControl();
    24e8:	0e 94 81 12 	call	0x2502	; 0x2502 <updateMoveControl>
}
    24ec:	08 95       	ret

000024ee <initMoveControl>:



void initMoveControl(void)
{
	kState = stationary;
    24ee:	83 e0       	ldi	r24, 0x03	; 3
    24f0:	80 93 83 05 	sts	0x0583, r24
	conditionedWallDistance = 160;
    24f4:	80 ea       	ldi	r24, 0xA0	; 160
    24f6:	90 e0       	ldi	r25, 0x00	; 0
    24f8:	90 93 82 05 	sts	0x0582, r25
    24fc:	80 93 81 05 	sts	0x0581, r24

}
    2500:	08 95       	ret

00002502 <updateMoveControl>:
	{
		case stationary: break;
		case moving: break;
		case turning: break;
	}
}
    2502:	08 95       	ret

00002504 <moveForward>:
 * moveForward
 *
 *      Author: Ron Engels, Declan Bullock
 */
void moveForward()
{
    2504:	4f 92       	push	r4
    2506:	5f 92       	push	r5
    2508:	7f 92       	push	r7
    250a:	8f 92       	push	r8
    250c:	9f 92       	push	r9
    250e:	af 92       	push	r10
    2510:	bf 92       	push	r11
    2512:	cf 92       	push	r12
    2514:	df 92       	push	r13
    2516:	ef 92       	push	r14
    2518:	ff 92       	push	r15
    251a:	0f 93       	push	r16
    251c:	1f 93       	push	r17
    251e:	cf 93       	push	r28
    2520:	df 93       	push	r29
	kState = moving;
    2522:	81 e0       	ldi	r24, 0x01	; 1
    2524:	80 93 83 05 	sts	0x0583, r24
	bool leftFrontExists = false;
	bool leftBackExists = false;
	bool rightFrontExists = false;
	bool rightBackExists = false;

	move(cruiseSpeed,FWD,cellDist,false);
    2528:	40 91 7c 00 	lds	r20, 0x007C
    252c:	50 91 7d 00 	lds	r21, 0x007D
    2530:	80 91 7e 00 	lds	r24, 0x007E
    2534:	60 e0       	ldi	r22, 0x00	; 0
    2536:	20 e0       	ldi	r18, 0x00	; 0
    2538:	0e 94 5e 0b 	call	0x16bc	; 0x16bc <move>


	mSleep(100); //wait otherwise movementComplete flag will still be true.
    253c:	84 e6       	ldi	r24, 0x64	; 100
    253e:	90 e0       	ldi	r25, 0x00	; 0
    2540:	0e 94 f4 03 	call	0x7e8	; 0x7e8 <mSleep>
{
	kState = moving;
	int leftDirError = 0;
	int rightDirError = 0;
	int leftDistError = 0;
	int rightDistError = 0;
    2544:	aa 24       	eor	r10, r10
    2546:	bb 24       	eor	r11, r11
void moveForward()
{
	kState = moving;
	int leftDirError = 0;
	int rightDirError = 0;
	int leftDistError = 0;
    2548:	88 24       	eor	r8, r8
    254a:	99 24       	eor	r9, r9
//		writeInteger(rightDistError,10);
//		writeChar('\n');

		if (rightFrontExists && rightBackExists && leftFrontExists && leftBackExists)
		{
			conditionedWallDistance = ((rightFront+leftFront)/2 + (rightBack+leftBack)/2)/2;
    254c:	82 e0       	ldi	r24, 0x02	; 2
    254e:	48 2e       	mov	r4, r24
    2550:	51 2c       	mov	r5, r1
	move(cruiseSpeed,FWD,cellDist,false);


	mSleep(100); //wait otherwise movementComplete flag will still be true.

	while(!drive_status.movementComplete)
    2552:	d7 c0       	rjmp	.+430    	; 0x2702 <moveForward+0x1fe>
	{

		int16_t leftFront = readAvgADC(ADC_5,10);
    2554:	85 e0       	ldi	r24, 0x05	; 5
    2556:	6a e0       	ldi	r22, 0x0A	; 10
    2558:	0e 94 c7 15 	call	0x2b8e	; 0x2b8e <readAvgADC>
    255c:	6c 01       	movw	r12, r24
		int16_t leftBack = readAvgADC(ADC_2,10);
    255e:	82 e0       	ldi	r24, 0x02	; 2
    2560:	6a e0       	ldi	r22, 0x0A	; 10
    2562:	0e 94 c7 15 	call	0x2b8e	; 0x2b8e <readAvgADC>
    2566:	8c 01       	movw	r16, r24
		int16_t rightFront = readAvgADC(ADC_4,10);
    2568:	84 e0       	ldi	r24, 0x04	; 4
    256a:	6a e0       	ldi	r22, 0x0A	; 10
    256c:	0e 94 c7 15 	call	0x2b8e	; 0x2b8e <readAvgADC>
    2570:	7c 01       	movw	r14, r24
		int16_t rightBack = readAvgADC(ADC_3,10);
    2572:	83 e0       	ldi	r24, 0x03	; 3
    2574:	6a e0       	ldi	r22, 0x0A	; 10
    2576:	0e 94 c7 15 	call	0x2b8e	; 0x2b8e <readAvgADC>
    257a:	fc 01       	movw	r30, r24

		leftFrontExists = (leftFront>=higherAvgWallBoundary);
    257c:	80 91 a3 00 	lds	r24, 0x00A3
    2580:	90 91 a4 00 	lds	r25, 0x00A4
    2584:	77 24       	eor	r7, r7
    2586:	73 94       	inc	r7
    2588:	c8 16       	cp	r12, r24
    258a:	d9 06       	cpc	r13, r25
    258c:	08 f4       	brcc	.+2      	; 0x2590 <moveForward+0x8c>
    258e:	77 24       	eor	r7, r7
		leftBackExists = (leftBack>=higherAvgWallBoundary);
    2590:	41 e0       	ldi	r20, 0x01	; 1
    2592:	08 17       	cp	r16, r24
    2594:	19 07       	cpc	r17, r25
    2596:	08 f4       	brcc	.+2      	; 0x259a <moveForward+0x96>
    2598:	40 e0       	ldi	r20, 0x00	; 0
		rightFrontExists = (rightFront>=higherAvgWallBoundary);
    259a:	31 e0       	ldi	r19, 0x01	; 1
    259c:	e8 16       	cp	r14, r24
    259e:	f9 06       	cpc	r15, r25
    25a0:	08 f4       	brcc	.+2      	; 0x25a4 <moveForward+0xa0>
    25a2:	30 e0       	ldi	r19, 0x00	; 0
		rightBackExists = (rightBack>=higherAvgWallBoundary);
    25a4:	21 e0       	ldi	r18, 0x01	; 1
    25a6:	e8 17       	cp	r30, r24
    25a8:	f9 07       	cpc	r31, r25
    25aa:	08 f4       	brcc	.+2      	; 0x25ae <moveForward+0xaa>
    25ac:	20 e0       	ldi	r18, 0x00	; 0
//		writeInteger(leftBack,10);
//		writeString(" RBack:");
//		writeInteger(rightBack,10);
//		writeChar('\n');

		if (leftFrontExists && leftBackExists)
    25ae:	77 20       	and	r7, r7
    25b0:	79 f1       	breq	.+94     	; 0x2610 <moveForward+0x10c>
    25b2:	44 23       	and	r20, r20
    25b4:	69 f1       	breq	.+90     	; 0x2610 <moveForward+0x10c>
		{
			leftDirError = (leftFront - leftBack) / dirErrorFactor;
    25b6:	c6 01       	movw	r24, r12
    25b8:	80 1b       	sub	r24, r16
    25ba:	91 0b       	sbc	r25, r17
    25bc:	60 91 7f 00 	lds	r22, 0x007F
    25c0:	70 91 80 00 	lds	r23, 0x0080
    25c4:	0e 94 7f 1a 	call	0x34fe	; 0x34fe <__udivmodhi4>
    25c8:	eb 01       	movw	r28, r22
			if (rightFrontExists) leftDistError = (leftFront - rightFront) / distErrorFactor;
    25ca:	33 23       	and	r19, r19
    25cc:	59 f0       	breq	.+22     	; 0x25e4 <moveForward+0xe0>
    25ce:	c6 01       	movw	r24, r12
    25d0:	8e 19       	sub	r24, r14
    25d2:	9f 09       	sbc	r25, r15
    25d4:	60 91 81 00 	lds	r22, 0x0081
    25d8:	70 91 82 00 	lds	r23, 0x0082
    25dc:	0e 94 7f 1a 	call	0x34fe	; 0x34fe <__udivmodhi4>
    25e0:	4b 01       	movw	r8, r22
    25e2:	1b c0       	rjmp	.+54     	; 0x261a <moveForward+0x116>
    25e4:	60 91 81 00 	lds	r22, 0x0081
    25e8:	70 91 82 00 	lds	r23, 0x0082
			else
			if (rightBackExists) leftDistError = (leftBack - rightBack) / distErrorFactor;
    25ec:	22 23       	and	r18, r18
    25ee:	21 f0       	breq	.+8      	; 0x25f8 <moveForward+0xf4>
    25f0:	c8 01       	movw	r24, r16
    25f2:	8e 1b       	sub	r24, r30
    25f4:	9f 0b       	sbc	r25, r31
    25f6:	08 c0       	rjmp	.+16     	; 0x2608 <moveForward+0x104>
			else
				leftDistError = (leftFront - conditionedWallDistance) / distErrorFactor;
    25f8:	80 91 81 05 	lds	r24, 0x0581
    25fc:	90 91 82 05 	lds	r25, 0x0582
    2600:	96 01       	movw	r18, r12
    2602:	28 1b       	sub	r18, r24
    2604:	39 0b       	sbc	r19, r25
    2606:	c9 01       	movw	r24, r18
    2608:	0e 94 7f 1a 	call	0x34fe	; 0x34fe <__udivmodhi4>
    260c:	4b 01       	movw	r8, r22
    260e:	96 c0       	rjmp	.+300    	; 0x273c <moveForward+0x238>
		else
		{
			leftDirError=0;
		}

		if (rightFrontExists && rightBackExists)
    2610:	33 23       	and	r19, r19
    2612:	09 f4       	brne	.+2      	; 0x2616 <moveForward+0x112>
    2614:	8f c0       	rjmp	.+286    	; 0x2734 <moveForward+0x230>
    2616:	c0 e0       	ldi	r28, 0x00	; 0
    2618:	d0 e0       	ldi	r29, 0x00	; 0
    261a:	22 23       	and	r18, r18
    261c:	09 f4       	brne	.+2      	; 0x2620 <moveForward+0x11c>
    261e:	8e c0       	rjmp	.+284    	; 0x273c <moveForward+0x238>
		{
			rightDirError = (rightFront - rightBack) / dirErrorFactor;
    2620:	c7 01       	movw	r24, r14
    2622:	8e 1b       	sub	r24, r30
    2624:	9f 0b       	sbc	r25, r31
    2626:	60 91 7f 00 	lds	r22, 0x007F
    262a:	70 91 80 00 	lds	r23, 0x0080
    262e:	0e 94 7f 1a 	call	0x34fe	; 0x34fe <__udivmodhi4>
    2632:	9b 01       	movw	r18, r22
			if (leftFrontExists) rightDistError = (rightFront - leftFront) / distErrorFactor;
    2634:	77 20       	and	r7, r7
    2636:	69 f0       	breq	.+26     	; 0x2652 <moveForward+0x14e>
    2638:	c7 01       	movw	r24, r14
    263a:	8c 19       	sub	r24, r12
    263c:	9d 09       	sbc	r25, r13
    263e:	60 91 81 00 	lds	r22, 0x0081
    2642:	70 91 82 00 	lds	r23, 0x0082
    2646:	0e 94 7f 1a 	call	0x34fe	; 0x34fe <__udivmodhi4>
    264a:	5b 01       	movw	r10, r22
//		writeInteger(leftDistError,10);
//		writeString(" RDist:");
//		writeInteger(rightDistError,10);
//		writeChar('\n');

		if (rightFrontExists && rightBackExists && leftFrontExists && leftBackExists)
    264c:	44 23       	and	r20, r20
    264e:	b9 f4       	brne	.+46     	; 0x267e <moveForward+0x17a>
    2650:	48 c0       	rjmp	.+144    	; 0x26e2 <moveForward+0x1de>
    2652:	60 91 81 00 	lds	r22, 0x0081
    2656:	70 91 82 00 	lds	r23, 0x0082
		if (rightFrontExists && rightBackExists)
		{
			rightDirError = (rightFront - rightBack) / dirErrorFactor;
			if (leftFrontExists) rightDistError = (rightFront - leftFront) / distErrorFactor;
			else
			if (leftBackExists) rightDistError = (rightBack - leftBack) / distErrorFactor;
    265a:	44 23       	and	r20, r20
    265c:	21 f0       	breq	.+8      	; 0x2666 <moveForward+0x162>
    265e:	cf 01       	movw	r24, r30
    2660:	80 1b       	sub	r24, r16
    2662:	91 0b       	sbc	r25, r17
    2664:	08 c0       	rjmp	.+16     	; 0x2676 <moveForward+0x172>
			else
				rightDistError = (rightFront - conditionedWallDistance) / distErrorFactor;
    2666:	80 91 81 05 	lds	r24, 0x0581
    266a:	90 91 82 05 	lds	r25, 0x0582
    266e:	a7 01       	movw	r20, r14
    2670:	48 1b       	sub	r20, r24
    2672:	59 0b       	sbc	r21, r25
    2674:	ca 01       	movw	r24, r20
    2676:	0e 94 7f 1a 	call	0x34fe	; 0x34fe <__udivmodhi4>
    267a:	5b 01       	movw	r10, r22
    267c:	32 c0       	rjmp	.+100    	; 0x26e2 <moveForward+0x1de>
//		writeInteger(rightDistError,10);
//		writeChar('\n');

		if (rightFrontExists && rightBackExists && leftFrontExists && leftBackExists)
		{
			conditionedWallDistance = ((rightFront+leftFront)/2 + (rightBack+leftBack)/2)/2;
    267e:	cf 01       	movw	r24, r30
    2680:	80 0f       	add	r24, r16
    2682:	91 1f       	adc	r25, r17
    2684:	b2 01       	movw	r22, r4
    2686:	0e 94 93 1a 	call	0x3526	; 0x3526 <__divmodhi4>
    268a:	fb 01       	movw	r30, r22
    268c:	c7 01       	movw	r24, r14
    268e:	8c 0d       	add	r24, r12
    2690:	9d 1d       	adc	r25, r13
    2692:	b2 01       	movw	r22, r4
    2694:	0e 94 93 1a 	call	0x3526	; 0x3526 <__divmodhi4>
    2698:	e6 0f       	add	r30, r22
    269a:	f7 1f       	adc	r31, r23
    269c:	cf 01       	movw	r24, r30
    269e:	b2 01       	movw	r22, r4
    26a0:	0e 94 93 1a 	call	0x3526	; 0x3526 <__divmodhi4>
    26a4:	70 93 82 05 	sts	0x0582, r23
    26a8:	60 93 81 05 	sts	0x0581, r22
    26ac:	1a c0       	rjmp	.+52     	; 0x26e2 <moveForward+0x1de>
		}

		if (!rightFrontExists && !leftFrontExists && rightBackExists && leftBackExists) //if entering no-wall zone, do a last error fix.
    26ae:	22 23       	and	r18, r18
    26b0:	a1 f0       	breq	.+40     	; 0x26da <moveForward+0x1d6>
    26b2:	44 23       	and	r20, r20
    26b4:	91 f0       	breq	.+36     	; 0x26da <moveForward+0x1d6>
		{
			leftDistError = (leftBack - rightBack) / distErrorFactor;
    26b6:	20 91 81 00 	lds	r18, 0x0081
    26ba:	30 91 82 00 	lds	r19, 0x0082
    26be:	c8 01       	movw	r24, r16
    26c0:	8e 1b       	sub	r24, r30
    26c2:	9f 0b       	sbc	r25, r31
    26c4:	b9 01       	movw	r22, r18
    26c6:	0e 94 7f 1a 	call	0x34fe	; 0x34fe <__udivmodhi4>
    26ca:	4b 01       	movw	r8, r22
			rightDistError = (rightBack - leftBack) / distErrorFactor;
    26cc:	cf 01       	movw	r24, r30
    26ce:	80 1b       	sub	r24, r16
    26d0:	91 0b       	sbc	r25, r17
    26d2:	b9 01       	movw	r22, r18
    26d4:	0e 94 7f 1a 	call	0x34fe	; 0x34fe <__udivmodhi4>
    26d8:	5b 01       	movw	r10, r22
		if (rightFrontExists && rightBackExists && leftFrontExists && leftBackExists)
		{
			conditionedWallDistance = ((rightFront+leftFront)/2 + (rightBack+leftBack)/2)/2;
		}

		if (!rightFrontExists && !leftFrontExists && rightBackExists && leftBackExists) //if entering no-wall zone, do a last error fix.
    26da:	20 e0       	ldi	r18, 0x00	; 0
    26dc:	30 e0       	ldi	r19, 0x00	; 0
    26de:	c0 e0       	ldi	r28, 0x00	; 0
    26e0:	d0 e0       	ldi	r29, 0x00	; 0
//		writeString("CWD:");
//		writeInteger(conditionedWallDistance,10);
//		writeChar('\n');

		//change individual motor speed according to Sharp data.
		moveAtSpeed(cruiseSpeed+leftDirError+leftDistError,cruiseSpeed+rightDirError+rightDistError);
    26e2:	80 91 7e 00 	lds	r24, 0x007E
    26e6:	ae 01       	movw	r20, r28
    26e8:	48 0d       	add	r20, r8
    26ea:	62 2f       	mov	r22, r18
    26ec:	6a 0d       	add	r22, r10
    26ee:	68 0f       	add	r22, r24
    26f0:	84 0f       	add	r24, r20
    26f2:	0e 94 06 0b 	call	0x160c	; 0x160c <moveAtSpeed>

		//if obstacle detected, stop (This is handled in the ACS event handler)


		task_checkINT0();
    26f6:	0e 94 37 0a 	call	0x146e	; 0x146e <task_checkINT0>
		task_I2CTWI();
    26fa:	0e 94 fb 06 	call	0xdf6	; 0xdf6 <task_I2CTWI>
		//mSleep(20);
		checkProcessEndedAbruptly();
    26fe:	0e 94 a9 0b 	call	0x1752	; 0x1752 <checkProcessEndedAbruptly>
	move(cruiseSpeed,FWD,cellDist,false);


	mSleep(100); //wait otherwise movementComplete flag will still be true.

	while(!drive_status.movementComplete)
    2702:	80 91 f7 02 	lds	r24, 0x02F7
    2706:	80 ff       	sbrs	r24, 0
    2708:	25 cf       	rjmp	.-438    	; 0x2554 <moveForward+0x50>
		task_checkINT0();
		task_I2CTWI();
		//mSleep(20);
		checkProcessEndedAbruptly();
	}
	stop();
    270a:	0e 94 2b 0b 	call	0x1656	; 0x1656 <stop>
	//set state to stationary.
	kState = stationary;
    270e:	83 e0       	ldi	r24, 0x03	; 3
    2710:	80 93 83 05 	sts	0x0583, r24
}
    2714:	df 91       	pop	r29
    2716:	cf 91       	pop	r28
    2718:	1f 91       	pop	r17
    271a:	0f 91       	pop	r16
    271c:	ff 90       	pop	r15
    271e:	ef 90       	pop	r14
    2720:	df 90       	pop	r13
    2722:	cf 90       	pop	r12
    2724:	bf 90       	pop	r11
    2726:	af 90       	pop	r10
    2728:	9f 90       	pop	r9
    272a:	8f 90       	pop	r8
    272c:	7f 90       	pop	r7
    272e:	5f 90       	pop	r5
    2730:	4f 90       	pop	r4
    2732:	08 95       	ret
		if (rightFrontExists && rightBackExists && leftFrontExists && leftBackExists)
		{
			conditionedWallDistance = ((rightFront+leftFront)/2 + (rightBack+leftBack)/2)/2;
		}

		if (!rightFrontExists && !leftFrontExists && rightBackExists && leftBackExists) //if entering no-wall zone, do a last error fix.
    2734:	77 20       	and	r7, r7
    2736:	09 f4       	brne	.+2      	; 0x273a <moveForward+0x236>
    2738:	ba cf       	rjmp	.-140    	; 0x26ae <moveForward+0x1aa>
    273a:	cf cf       	rjmp	.-98     	; 0x26da <moveForward+0x1d6>
			else
				rightDistError = (rightFront - conditionedWallDistance) / distErrorFactor;
		}
		else
		{
			rightDirError = 0;
    273c:	20 e0       	ldi	r18, 0x00	; 0
    273e:	30 e0       	ldi	r19, 0x00	; 0
    2740:	d0 cf       	rjmp	.-96     	; 0x26e2 <moveForward+0x1de>

00002742 <turnLeft>:
}

void turnLeft(void)
{
	//set state to turning
	kState = turning;
    2742:	82 e0       	ldi	r24, 0x02	; 2
    2744:	80 93 83 05 	sts	0x0583, r24

	//start turning left
	rotate(cruiseSpeed,LEFT,dist360/25,true);
    2748:	80 91 78 00 	lds	r24, 0x0078
    274c:	90 91 79 00 	lds	r25, 0x0079
    2750:	69 e1       	ldi	r22, 0x19	; 25
    2752:	70 e0       	ldi	r23, 0x00	; 0
    2754:	0e 94 93 1a 	call	0x3526	; 0x3526 <__divmodhi4>
    2758:	ab 01       	movw	r20, r22
    275a:	80 91 7e 00 	lds	r24, 0x007E
    275e:	62 e0       	ldi	r22, 0x02	; 2
    2760:	21 e0       	ldi	r18, 0x01	; 1
    2762:	0e 94 33 0b 	call	0x1666	; 0x1666 <rotate>

	//set state to stationary
	kState = stationary;
    2766:	83 e0       	ldi	r24, 0x03	; 3
    2768:	80 93 83 05 	sts	0x0583, r24
}
    276c:	08 95       	ret

0000276e <turnRight>:
void turnRight(void)
{

	//set state to turning
	kState = turning;
    276e:	82 e0       	ldi	r24, 0x02	; 2
    2770:	80 93 83 05 	sts	0x0583, r24

	//start turning right
	rotate(cruiseSpeed,RIGHT,dist360/25,true);
    2774:	80 91 78 00 	lds	r24, 0x0078
    2778:	90 91 79 00 	lds	r25, 0x0079
    277c:	69 e1       	ldi	r22, 0x19	; 25
    277e:	70 e0       	ldi	r23, 0x00	; 0
    2780:	0e 94 93 1a 	call	0x3526	; 0x3526 <__divmodhi4>
    2784:	ab 01       	movw	r20, r22
    2786:	80 91 7e 00 	lds	r24, 0x007E
    278a:	63 e0       	ldi	r22, 0x03	; 3
    278c:	21 e0       	ldi	r18, 0x01	; 1
    278e:	0e 94 33 0b 	call	0x1666	; 0x1666 <rotate>

	//set state to stationary
	kState = stationary;
    2792:	83 e0       	ldi	r24, 0x03	; 3
    2794:	80 93 83 05 	sts	0x0583, r24
}
    2798:	08 95       	ret

0000279a <turn180>:
void turn180(void)
{

	//set state to turning
	kState = turning;
    279a:	82 e0       	ldi	r24, 0x02	; 2
    279c:	80 93 83 05 	sts	0x0583, r24

	//start turning right
	rotate(cruiseSpeed,LEFT,2*dist360/25,true);
    27a0:	80 91 78 00 	lds	r24, 0x0078
    27a4:	90 91 79 00 	lds	r25, 0x0079
    27a8:	88 0f       	add	r24, r24
    27aa:	99 1f       	adc	r25, r25
    27ac:	69 e1       	ldi	r22, 0x19	; 25
    27ae:	70 e0       	ldi	r23, 0x00	; 0
    27b0:	0e 94 93 1a 	call	0x3526	; 0x3526 <__divmodhi4>
    27b4:	ab 01       	movw	r20, r22
    27b6:	80 91 7e 00 	lds	r24, 0x007E
    27ba:	62 e0       	ldi	r22, 0x02	; 2
    27bc:	21 e0       	ldi	r18, 0x01	; 1
    27be:	0e 94 33 0b 	call	0x1666	; 0x1666 <rotate>

	//set state to stationary
	kState = stationary;
    27c2:	83 e0       	ldi	r24, 0x03	; 3
    27c4:	80 93 83 05 	sts	0x0583, r24
}
    27c8:	08 95       	ret

000027ca <readCharBlock>:
commState cState;


char readCharBlock(void)
{
	while (getBufferLength()==0) {}
    27ca:	0e 94 a0 06 	call	0xd40	; 0xd40 <getBufferLength>
    27ce:	88 23       	and	r24, r24
    27d0:	e1 f3       	breq	.-8      	; 0x27ca <readCharBlock>
	return readChar();
    27d2:	0e 94 5f 06 	call	0xcbe	; 0xcbe <readChar>
}
    27d6:	08 95       	ret

000027d8 <initCommControl>:

void initCommControl(void)
{
    27d8:	1f 93       	push	r17
    27da:	df 93       	push	r29
    27dc:	cf 93       	push	r28
    27de:	0f 92       	push	r0
    27e0:	cd b7       	in	r28, 0x3d	; 61
    27e2:	de b7       	in	r29, 0x3e	; 62
	clearReceptionBuffer();
    27e4:	0e 94 a6 06 	call	0xd4c	; 0xd4c <clearReceptionBuffer>
	//waiting for briefing
	show_WAITINGFORBRIEFING();
    27e8:	0e 94 23 18 	call	0x3046	; 0x3046 <show_WAITINGFORBRIEFING>
	//TODO: ADD A ELEVATOR WAITING SONG HERE
	cState = receiving;
    27ec:	81 e0       	ldi	r24, 0x01	; 1
    27ee:	80 93 84 05 	sts	0x0584, r24

	uint8_t x = (uint8_t) readCharBlock();
    27f2:	0e 94 e5 13 	call	0x27ca	; 0x27ca <readCharBlock>
    27f6:	18 2f       	mov	r17, r24
	uint8_t y = (uint8_t) readCharBlock();
    27f8:	0e 94 e5 13 	call	0x27ca	; 0x27ca <readCharBlock>
	dir = (direction) readCharBlock();
    27fc:	89 83       	std	Y+1, r24	; 0x01
    27fe:	0e 94 e5 13 	call	0x27ca	; 0x27ca <readCharBlock>
    2802:	48 2f       	mov	r20, r24
    2804:	80 93 fb 02 	sts	0x02FB, r24
	//uint8_t y = 0;
	//uint8_t x = 0;
	//dir = facingEast;
	cells[0].x = x;
    2808:	10 93 00 03 	sts	0x0300, r17
    280c:	10 92 01 03 	sts	0x0301, r1
	cells[0].y = y;
    2810:	69 81       	ldd	r22, Y+1	; 0x01
    2812:	60 93 02 03 	sts	0x0302, r22
    2816:	10 92 03 03 	sts	0x0303, r1
	cells[0].dir = dir;
    281a:	80 93 05 03 	sts	0x0305, r24

	show_BRIEFINGRECEIVED(x,y,dir);
    281e:	81 2f       	mov	r24, r17
    2820:	90 e0       	ldi	r25, 0x00	; 0
    2822:	70 e0       	ldi	r23, 0x00	; 0
    2824:	50 e0       	ldi	r21, 0x00	; 0
    2826:	0e 94 35 18 	call	0x306a	; 0x306a <show_BRIEFINGRECEIVED>

	cState = idle;
    282a:	10 92 84 05 	sts	0x0584, r1
	mSleep(1000);
    282e:	88 ee       	ldi	r24, 0xE8	; 232
    2830:	93 e0       	ldi	r25, 0x03	; 3
    2832:	0e 94 f4 03 	call	0x7e8	; 0x7e8 <mSleep>
}
    2836:	0f 90       	pop	r0
    2838:	cf 91       	pop	r28
    283a:	df 91       	pop	r29
    283c:	1f 91       	pop	r17
    283e:	08 95       	ret

00002840 <sendData>:

void sendData(void)
{
    2840:	ef 92       	push	r14
    2842:	ff 92       	push	r15
    2844:	0f 93       	push	r16
    2846:	1f 93       	push	r17
    2848:	cf 93       	push	r28
    284a:	df 93       	push	r29
	clearReceptionBuffer();
    284c:	0e 94 a6 06 	call	0xd4c	; 0xd4c <clearReceptionBuffer>
	cState = sending;
    2850:	82 e0       	ldi	r24, 0x02	; 2
    2852:	80 93 84 05 	sts	0x0584, r24
	show_WAITINGFORDEBRIEFING();
    2856:	0e 94 2c 18 	call	0x3058	; 0x3058 <show_WAITINGFORDEBRIEFING>
	readCharBlock();
    285a:	0e 94 e5 13 	call	0x27ca	; 0x27ca <readCharBlock>
	mSleep(10);
    285e:	8a e0       	ldi	r24, 0x0A	; 10
    2860:	90 e0       	ldi	r25, 0x00	; 0
    2862:	0e 94 f4 03 	call	0x7e8	; 0x7e8 <mSleep>


	writeIntegerLength(totalCellsFindCourse,10,3);writeChar('\n');
    2866:	80 91 03 01 	lds	r24, 0x0103
    286a:	90 91 04 01 	lds	r25, 0x0104
    286e:	6a e0       	ldi	r22, 0x0A	; 10
    2870:	43 e0       	ldi	r20, 0x03	; 3
    2872:	0e 94 e7 05 	call	0xbce	; 0xbce <writeIntegerLength>
    2876:	8a e0       	ldi	r24, 0x0A	; 10
    2878:	0e 94 82 05 	call	0xb04	; 0xb04 <writeChar>
    287c:	0c ef       	ldi	r16, 0xFC	; 252
    287e:	12 e0       	ldi	r17, 0x02	; 2
	for(int i=0;i<totalCellsFindCourse;i++)
    2880:	e8 01       	movw	r28, r16
    2882:	ee 24       	eor	r14, r14
    2884:	ff 24       	eor	r15, r15
    2886:	5c c0       	rjmp	.+184    	; 0x2940 <sendData+0x100>
	{
		writeString(cells[i].north ? "NY" : "NN");writeChar('\n');
    2888:	88 81       	ld	r24, Y
    288a:	88 23       	and	r24, r24
    288c:	19 f0       	breq	.+6      	; 0x2894 <sendData+0x54>
    288e:	83 e8       	ldi	r24, 0x83	; 131
    2890:	90 e0       	ldi	r25, 0x00	; 0
    2892:	02 c0       	rjmp	.+4      	; 0x2898 <sendData+0x58>
    2894:	86 e8       	ldi	r24, 0x86	; 134
    2896:	90 e0       	ldi	r25, 0x00	; 0
    2898:	0e 94 86 05 	call	0xb0c	; 0xb0c <writeString>
    289c:	8a e0       	ldi	r24, 0x0A	; 10
    289e:	0e 94 82 05 	call	0xb04	; 0xb04 <writeChar>
		writeString(cells[i].east ? "EY" : "EN");writeChar('\n');
    28a2:	89 81       	ldd	r24, Y+1	; 0x01
    28a4:	88 23       	and	r24, r24
    28a6:	19 f0       	breq	.+6      	; 0x28ae <sendData+0x6e>
    28a8:	89 e8       	ldi	r24, 0x89	; 137
    28aa:	90 e0       	ldi	r25, 0x00	; 0
    28ac:	02 c0       	rjmp	.+4      	; 0x28b2 <sendData+0x72>
    28ae:	8c e8       	ldi	r24, 0x8C	; 140
    28b0:	90 e0       	ldi	r25, 0x00	; 0
    28b2:	0e 94 86 05 	call	0xb0c	; 0xb0c <writeString>
    28b6:	8a e0       	ldi	r24, 0x0A	; 10
    28b8:	0e 94 82 05 	call	0xb04	; 0xb04 <writeChar>
		writeString(cells[i].south ? "SY" : "SN");writeChar('\n');
    28bc:	8a 81       	ldd	r24, Y+2	; 0x02
    28be:	88 23       	and	r24, r24
    28c0:	19 f0       	breq	.+6      	; 0x28c8 <sendData+0x88>
    28c2:	8f e8       	ldi	r24, 0x8F	; 143
    28c4:	90 e0       	ldi	r25, 0x00	; 0
    28c6:	02 c0       	rjmp	.+4      	; 0x28cc <sendData+0x8c>
    28c8:	82 e9       	ldi	r24, 0x92	; 146
    28ca:	90 e0       	ldi	r25, 0x00	; 0
    28cc:	0e 94 86 05 	call	0xb0c	; 0xb0c <writeString>
    28d0:	8a e0       	ldi	r24, 0x0A	; 10
    28d2:	0e 94 82 05 	call	0xb04	; 0xb04 <writeChar>
		writeString(cells[i].west ? "WY" : "WN");writeChar('\n');
    28d6:	8b 81       	ldd	r24, Y+3	; 0x03
    28d8:	88 23       	and	r24, r24
    28da:	19 f0       	breq	.+6      	; 0x28e2 <sendData+0xa2>
    28dc:	85 e9       	ldi	r24, 0x95	; 149
    28de:	90 e0       	ldi	r25, 0x00	; 0
    28e0:	02 c0       	rjmp	.+4      	; 0x28e6 <sendData+0xa6>
    28e2:	88 e9       	ldi	r24, 0x98	; 152
    28e4:	90 e0       	ldi	r25, 0x00	; 0
    28e6:	0e 94 86 05 	call	0xb0c	; 0xb0c <writeString>
    28ea:	8a e0       	ldi	r24, 0x0A	; 10
    28ec:	0e 94 82 05 	call	0xb04	; 0xb04 <writeChar>
		writeIntegerLength(cells[i].x,10,2);writeChar('\n');
    28f0:	8c 81       	ldd	r24, Y+4	; 0x04
    28f2:	9d 81       	ldd	r25, Y+5	; 0x05
    28f4:	6a e0       	ldi	r22, 0x0A	; 10
    28f6:	42 e0       	ldi	r20, 0x02	; 2
    28f8:	0e 94 e7 05 	call	0xbce	; 0xbce <writeIntegerLength>
    28fc:	8a e0       	ldi	r24, 0x0A	; 10
    28fe:	0e 94 82 05 	call	0xb04	; 0xb04 <writeChar>
		writeIntegerLength(cells[i].y,10,2);writeChar('\n');
    2902:	8e 81       	ldd	r24, Y+6	; 0x06
    2904:	9f 81       	ldd	r25, Y+7	; 0x07
    2906:	6a e0       	ldi	r22, 0x0A	; 10
    2908:	42 e0       	ldi	r20, 0x02	; 2
    290a:	0e 94 e7 05 	call	0xbce	; 0xbce <writeIntegerLength>
    290e:	8a e0       	ldi	r24, 0x0A	; 10
    2910:	0e 94 82 05 	call	0xb04	; 0xb04 <writeChar>
		writeIntegerLength(cells[i].a,10,2);writeChar('\n');
    2914:	88 85       	ldd	r24, Y+8	; 0x08
    2916:	90 e0       	ldi	r25, 0x00	; 0
    2918:	6a e0       	ldi	r22, 0x0A	; 10
    291a:	42 e0       	ldi	r20, 0x02	; 2
    291c:	0e 94 e7 05 	call	0xbce	; 0xbce <writeIntegerLength>
    2920:	8a e0       	ldi	r24, 0x0A	; 10
    2922:	0e 94 82 05 	call	0xb04	; 0xb04 <writeChar>
		writeIntegerLength(cells[i].dir,10,2);writeChar('\n');
    2926:	89 85       	ldd	r24, Y+9	; 0x09
    2928:	90 e0       	ldi	r25, 0x00	; 0
    292a:	6a e0       	ldi	r22, 0x0A	; 10
    292c:	42 e0       	ldi	r20, 0x02	; 2
    292e:	0e 94 e7 05 	call	0xbce	; 0xbce <writeIntegerLength>
    2932:	8a e0       	ldi	r24, 0x0A	; 10
    2934:	0e 94 82 05 	call	0xb04	; 0xb04 <writeChar>
	readCharBlock();
	mSleep(10);


	writeIntegerLength(totalCellsFindCourse,10,3);writeChar('\n');
	for(int i=0;i<totalCellsFindCourse;i++)
    2938:	08 94       	sec
    293a:	e1 1c       	adc	r14, r1
    293c:	f1 1c       	adc	r15, r1
    293e:	2a 96       	adiw	r28, 0x0a	; 10
    2940:	80 91 03 01 	lds	r24, 0x0103
    2944:	90 91 04 01 	lds	r25, 0x0104
    2948:	e8 16       	cp	r14, r24
    294a:	f9 06       	cpc	r15, r25
    294c:	0c f4       	brge	.+2      	; 0x2950 <sendData+0x110>
    294e:	9c cf       	rjmp	.-200    	; 0x2888 <sendData+0x48>
		writeIntegerLength(cells[i].x,10,2);writeChar('\n');
		writeIntegerLength(cells[i].y,10,2);writeChar('\n');
		writeIntegerLength(cells[i].a,10,2);writeChar('\n');
		writeIntegerLength(cells[i].dir,10,2);writeChar('\n');
	}
	if (!softEndFind)
    2950:	80 91 7a 00 	lds	r24, 0x007A
    2954:	88 23       	and	r24, r24
    2956:	09 f4       	brne	.+2      	; 0x295a <sendData+0x11a>
    2958:	79 c0       	rjmp	.+242    	; 0x2a4c <sendData+0x20c>
		cState = idle;
		return;
	}
	else
	{
		readCharBlock();
    295a:	0e 94 e5 13 	call	0x27ca	; 0x27ca <readCharBlock>

		mSleep(10);
    295e:	8a e0       	ldi	r24, 0x0A	; 10
    2960:	90 e0       	ldi	r25, 0x00	; 0
    2962:	0e 94 f4 03 	call	0x7e8	; 0x7e8 <mSleep>

		writeIntegerLength(totalCellsReturnCourse,10,3);writeChar('\n');
    2966:	80 91 05 01 	lds	r24, 0x0105
    296a:	90 91 06 01 	lds	r25, 0x0106
    296e:	6a e0       	ldi	r22, 0x0A	; 10
    2970:	43 e0       	ldi	r20, 0x03	; 3
    2972:	0e 94 e7 05 	call	0xbce	; 0xbce <writeIntegerLength>
    2976:	8a e0       	ldi	r24, 0x0A	; 10
    2978:	0e 94 82 05 	call	0xb04	; 0xb04 <writeChar>
		for(int i=0;i<totalCellsReturnCourse;i++)
    297c:	c0 e0       	ldi	r28, 0x00	; 0
    297e:	d0 e0       	ldi	r29, 0x00	; 0
    2980:	59 c0       	rjmp	.+178    	; 0x2a34 <sendData+0x1f4>
		{
			writeString(cells[i].north ? "NY" : "NN");writeChar('\n');
    2982:	f8 01       	movw	r30, r16
    2984:	80 81       	ld	r24, Z
    2986:	88 23       	and	r24, r24
    2988:	19 f0       	breq	.+6      	; 0x2990 <sendData+0x150>
    298a:	83 e8       	ldi	r24, 0x83	; 131
    298c:	90 e0       	ldi	r25, 0x00	; 0
    298e:	02 c0       	rjmp	.+4      	; 0x2994 <sendData+0x154>
    2990:	86 e8       	ldi	r24, 0x86	; 134
    2992:	90 e0       	ldi	r25, 0x00	; 0
    2994:	0e 94 86 05 	call	0xb0c	; 0xb0c <writeString>
    2998:	8a e0       	ldi	r24, 0x0A	; 10
    299a:	0e 94 82 05 	call	0xb04	; 0xb04 <writeChar>
			writeString(cells[i].east ? "EY" : "EN");writeChar('\n');
    299e:	f8 01       	movw	r30, r16
    29a0:	81 81       	ldd	r24, Z+1	; 0x01
    29a2:	88 23       	and	r24, r24
    29a4:	19 f0       	breq	.+6      	; 0x29ac <sendData+0x16c>
    29a6:	89 e8       	ldi	r24, 0x89	; 137
    29a8:	90 e0       	ldi	r25, 0x00	; 0
    29aa:	02 c0       	rjmp	.+4      	; 0x29b0 <sendData+0x170>
    29ac:	8c e8       	ldi	r24, 0x8C	; 140
    29ae:	90 e0       	ldi	r25, 0x00	; 0
    29b0:	0e 94 86 05 	call	0xb0c	; 0xb0c <writeString>
    29b4:	8a e0       	ldi	r24, 0x0A	; 10
    29b6:	0e 94 82 05 	call	0xb04	; 0xb04 <writeChar>
			writeString(cells[i].south ? "SY" : "SN");writeChar('\n');
    29ba:	f8 01       	movw	r30, r16
    29bc:	82 81       	ldd	r24, Z+2	; 0x02
    29be:	88 23       	and	r24, r24
    29c0:	19 f0       	breq	.+6      	; 0x29c8 <sendData+0x188>
    29c2:	8f e8       	ldi	r24, 0x8F	; 143
    29c4:	90 e0       	ldi	r25, 0x00	; 0
    29c6:	02 c0       	rjmp	.+4      	; 0x29cc <sendData+0x18c>
    29c8:	82 e9       	ldi	r24, 0x92	; 146
    29ca:	90 e0       	ldi	r25, 0x00	; 0
    29cc:	0e 94 86 05 	call	0xb0c	; 0xb0c <writeString>
    29d0:	8a e0       	ldi	r24, 0x0A	; 10
    29d2:	0e 94 82 05 	call	0xb04	; 0xb04 <writeChar>
			writeString(cells[i].west ? "WY" : "WN");writeChar('\n');
    29d6:	f8 01       	movw	r30, r16
    29d8:	83 81       	ldd	r24, Z+3	; 0x03
    29da:	88 23       	and	r24, r24
    29dc:	19 f0       	breq	.+6      	; 0x29e4 <sendData+0x1a4>
    29de:	85 e9       	ldi	r24, 0x95	; 149
    29e0:	90 e0       	ldi	r25, 0x00	; 0
    29e2:	02 c0       	rjmp	.+4      	; 0x29e8 <sendData+0x1a8>
    29e4:	88 e9       	ldi	r24, 0x98	; 152
    29e6:	90 e0       	ldi	r25, 0x00	; 0
    29e8:	0e 94 86 05 	call	0xb0c	; 0xb0c <writeString>
    29ec:	8a e0       	ldi	r24, 0x0A	; 10
    29ee:	0e 94 82 05 	call	0xb04	; 0xb04 <writeChar>
			writeIntegerLength(cells[i].x,10,2);writeChar('\n');
    29f2:	f8 01       	movw	r30, r16
    29f4:	84 81       	ldd	r24, Z+4	; 0x04
    29f6:	95 81       	ldd	r25, Z+5	; 0x05
    29f8:	6a e0       	ldi	r22, 0x0A	; 10
    29fa:	42 e0       	ldi	r20, 0x02	; 2
    29fc:	0e 94 e7 05 	call	0xbce	; 0xbce <writeIntegerLength>
    2a00:	8a e0       	ldi	r24, 0x0A	; 10
    2a02:	0e 94 82 05 	call	0xb04	; 0xb04 <writeChar>
			writeIntegerLength(cells[i].y,10,2);writeChar('\n');
    2a06:	f8 01       	movw	r30, r16
    2a08:	86 81       	ldd	r24, Z+6	; 0x06
    2a0a:	97 81       	ldd	r25, Z+7	; 0x07
    2a0c:	6a e0       	ldi	r22, 0x0A	; 10
    2a0e:	42 e0       	ldi	r20, 0x02	; 2
    2a10:	0e 94 e7 05 	call	0xbce	; 0xbce <writeIntegerLength>
    2a14:	8a e0       	ldi	r24, 0x0A	; 10
    2a16:	0e 94 82 05 	call	0xb04	; 0xb04 <writeChar>
			writeIntegerLength(cells[i].a,10,2);writeChar('\n');
    2a1a:	f8 01       	movw	r30, r16
    2a1c:	80 85       	ldd	r24, Z+8	; 0x08
    2a1e:	90 e0       	ldi	r25, 0x00	; 0
    2a20:	6a e0       	ldi	r22, 0x0A	; 10
    2a22:	42 e0       	ldi	r20, 0x02	; 2
    2a24:	0e 94 e7 05 	call	0xbce	; 0xbce <writeIntegerLength>
    2a28:	8a e0       	ldi	r24, 0x0A	; 10
    2a2a:	0e 94 82 05 	call	0xb04	; 0xb04 <writeChar>
		readCharBlock();

		mSleep(10);

		writeIntegerLength(totalCellsReturnCourse,10,3);writeChar('\n');
		for(int i=0;i<totalCellsReturnCourse;i++)
    2a2e:	21 96       	adiw	r28, 0x01	; 1
    2a30:	06 5f       	subi	r16, 0xF6	; 246
    2a32:	1f 4f       	sbci	r17, 0xFF	; 255
    2a34:	80 91 05 01 	lds	r24, 0x0105
    2a38:	90 91 06 01 	lds	r25, 0x0106
    2a3c:	c8 17       	cp	r28, r24
    2a3e:	d9 07       	cpc	r29, r25
    2a40:	0c f4       	brge	.+2      	; 0x2a44 <sendData+0x204>
    2a42:	9f cf       	rjmp	.-194    	; 0x2982 <sendData+0x142>
			writeString(cells[i].west ? "WY" : "WN");writeChar('\n');
			writeIntegerLength(cells[i].x,10,2);writeChar('\n');
			writeIntegerLength(cells[i].y,10,2);writeChar('\n');
			writeIntegerLength(cells[i].a,10,2);writeChar('\n');
		}
		if (!softEndReturn)
    2a44:	80 91 7b 00 	lds	r24, 0x007B
    2a48:	88 23       	and	r24, r24
    2a4a:	41 f4       	brne	.+16     	; 0x2a5c <sendData+0x21c>
		{
			writeChar('F');writeChar('\n');
    2a4c:	86 e4       	ldi	r24, 0x46	; 70
    2a4e:	0e 94 82 05 	call	0xb04	; 0xb04 <writeChar>
    2a52:	8a e0       	ldi	r24, 0x0A	; 10
    2a54:	0e 94 82 05 	call	0xb04	; 0xb04 <writeChar>
			cState = idle;
    2a58:	10 92 84 05 	sts	0x0584, r1
			return;
		}
	}

}
    2a5c:	df 91       	pop	r29
    2a5e:	cf 91       	pop	r28
    2a60:	1f 91       	pop	r17
    2a62:	0f 91       	pop	r16
    2a64:	ff 90       	pop	r15
    2a66:	ef 90       	pop	r14
    2a68:	08 95       	ret

00002a6a <setPortMode>:
uint8_t PORT[4] = {0xB, } ;

void setPortMode(char port, uint8_t pin, bool value)
{
	uint16_t chosenPort;
	switch(port)
    2a6a:	82 36       	cpi	r24, 0x62	; 98
    2a6c:	99 f0       	breq	.+38     	; 0x2a94 <setPortMode+0x2a>
    2a6e:	83 36       	cpi	r24, 0x63	; 99
    2a70:	18 f4       	brcc	.+6      	; 0x2a78 <setPortMode+0xe>
    2a72:	81 36       	cpi	r24, 0x61	; 97
    2a74:	e9 f4       	brne	.+58     	; 0x2ab0 <setPortMode+0x46>
    2a76:	05 c0       	rjmp	.+10     	; 0x2a82 <setPortMode+0x18>
    2a78:	83 36       	cpi	r24, 0x63	; 99
    2a7a:	31 f0       	breq	.+12     	; 0x2a88 <setPortMode+0x1e>
    2a7c:	84 36       	cpi	r24, 0x64	; 100
    2a7e:	c1 f4       	brne	.+48     	; 0x2ab0 <setPortMode+0x46>
    2a80:	06 c0       	rjmp	.+12     	; 0x2a8e <setPortMode+0x24>
	{
		case 'a': chosenPort = 0;break;
    2a82:	e0 e0       	ldi	r30, 0x00	; 0
    2a84:	f0 e0       	ldi	r31, 0x00	; 0
    2a86:	08 c0       	rjmp	.+16     	; 0x2a98 <setPortMode+0x2e>
		case 'b': chosenPort = 1;break;
		case 'c': chosenPort = 2;break;
    2a88:	e2 e0       	ldi	r30, 0x02	; 2
    2a8a:	f0 e0       	ldi	r31, 0x00	; 0
    2a8c:	05 c0       	rjmp	.+10     	; 0x2a98 <setPortMode+0x2e>
		case 'd': chosenPort = 3;break;
    2a8e:	e3 e0       	ldi	r30, 0x03	; 3
    2a90:	f0 e0       	ldi	r31, 0x00	; 0
    2a92:	02 c0       	rjmp	.+4      	; 0x2a98 <setPortMode+0x2e>
{
	uint16_t chosenPort;
	switch(port)
	{
		case 'a': chosenPort = 0;break;
		case 'b': chosenPort = 1;break;
    2a94:	e1 e0       	ldi	r30, 0x01	; 1
    2a96:	f0 e0       	ldi	r31, 0x00	; 0
    2a98:	e5 56       	subi	r30, 0x65	; 101
    2a9a:	ff 4f       	sbci	r31, 0xFF	; 255
		case 'c': chosenPort = 2;break;
		case 'd': chosenPort = 3;break;
		default:return;
	}

	if (value==true)
    2a9c:	41 30       	cpi	r20, 0x01	; 1
    2a9e:	21 f4       	brne	.+8      	; 0x2aa8 <setPortMode+0x3e>
	{//output
		DDR[chosenPort] |= pin;
    2aa0:	80 81       	ld	r24, Z
    2aa2:	86 2b       	or	r24, r22
    2aa4:	80 83       	st	Z, r24
    2aa6:	08 95       	ret
	}
	else
	{//input
		DDR[chosenPort] &= ~pin;
    2aa8:	60 95       	com	r22
    2aaa:	80 81       	ld	r24, Z
    2aac:	86 23       	and	r24, r22
    2aae:	80 83       	st	Z, r24
    2ab0:	08 95       	ret

00002ab2 <setPortVal>:
}

void setPortVal(char port, uint8_t pin, bool value)
{
	uint16_t chosenPort;
	switch(port)
    2ab2:	82 36       	cpi	r24, 0x62	; 98
    2ab4:	99 f0       	breq	.+38     	; 0x2adc <setPortVal+0x2a>
    2ab6:	83 36       	cpi	r24, 0x63	; 99
    2ab8:	18 f4       	brcc	.+6      	; 0x2ac0 <setPortVal+0xe>
    2aba:	81 36       	cpi	r24, 0x61	; 97
    2abc:	e9 f4       	brne	.+58     	; 0x2af8 <setPortVal+0x46>
    2abe:	05 c0       	rjmp	.+10     	; 0x2aca <setPortVal+0x18>
    2ac0:	83 36       	cpi	r24, 0x63	; 99
    2ac2:	31 f0       	breq	.+12     	; 0x2ad0 <setPortVal+0x1e>
    2ac4:	84 36       	cpi	r24, 0x64	; 100
    2ac6:	c1 f4       	brne	.+48     	; 0x2af8 <setPortVal+0x46>
    2ac8:	06 c0       	rjmp	.+12     	; 0x2ad6 <setPortVal+0x24>
	{
		case 'a': chosenPort = 0;break;
    2aca:	e0 e0       	ldi	r30, 0x00	; 0
    2acc:	f0 e0       	ldi	r31, 0x00	; 0
    2ace:	08 c0       	rjmp	.+16     	; 0x2ae0 <setPortVal+0x2e>
		case 'b': chosenPort = 1;break;
		case 'c': chosenPort = 2;break;
    2ad0:	e2 e0       	ldi	r30, 0x02	; 2
    2ad2:	f0 e0       	ldi	r31, 0x00	; 0
    2ad4:	05 c0       	rjmp	.+10     	; 0x2ae0 <setPortVal+0x2e>
		case 'd': chosenPort = 3;break;
    2ad6:	e3 e0       	ldi	r30, 0x03	; 3
    2ad8:	f0 e0       	ldi	r31, 0x00	; 0
    2ada:	02 c0       	rjmp	.+4      	; 0x2ae0 <setPortVal+0x2e>
{
	uint16_t chosenPort;
	switch(port)
	{
		case 'a': chosenPort = 0;break;
		case 'b': chosenPort = 1;break;
    2adc:	e1 e0       	ldi	r30, 0x01	; 1
    2ade:	f0 e0       	ldi	r31, 0x00	; 0
    2ae0:	e1 56       	subi	r30, 0x61	; 97
    2ae2:	ff 4f       	sbci	r31, 0xFF	; 255
		case 'c': chosenPort = 2;break;
		case 'd': chosenPort = 3;break;
		default:return;
	}

	if (value==true)
    2ae4:	41 30       	cpi	r20, 0x01	; 1
    2ae6:	21 f4       	brne	.+8      	; 0x2af0 <setPortVal+0x3e>
	{//output
		PORT[chosenPort] |= pin;
    2ae8:	80 81       	ld	r24, Z
    2aea:	86 2b       	or	r24, r22
    2aec:	80 83       	st	Z, r24
    2aee:	08 95       	ret
	}
	else
	{//input
		PORT[chosenPort] &= ~pin;
    2af0:	60 95       	com	r22
    2af2:	80 81       	ld	r24, Z
    2af4:	86 23       	and	r24, r22
    2af6:	80 83       	st	Z, r24
    2af8:	08 95       	ret

00002afa <initASI>:
	}
}

void initASI(void)
{
	DDR[0] = DDRA;
    2afa:	8a b3       	in	r24, 0x1a	; 26
    2afc:	80 93 9b 00 	sts	0x009B, r24
	DDR[1] = DDRB;
    2b00:	87 b3       	in	r24, 0x17	; 23
    2b02:	80 93 9c 00 	sts	0x009C, r24
	DDR[2] = DDRC;
    2b06:	84 b3       	in	r24, 0x14	; 20
    2b08:	80 93 9d 00 	sts	0x009D, r24
	DDR[3] = DDRD;
    2b0c:	81 b3       	in	r24, 0x11	; 17
    2b0e:	80 93 9e 00 	sts	0x009E, r24

	PORT[0] = PORTA;
    2b12:	8b b3       	in	r24, 0x1b	; 27
    2b14:	80 93 9f 00 	sts	0x009F, r24
	PORT[1] = PORTB;
    2b18:	88 b3       	in	r24, 0x18	; 24
    2b1a:	80 93 a0 00 	sts	0x00A0, r24
	PORT[2] = PORTC;
    2b1e:	85 b3       	in	r24, 0x15	; 21
    2b20:	80 93 a1 00 	sts	0x00A1, r24
	PORT[3] = PORTD;
    2b24:	82 b3       	in	r24, 0x12	; 18
    2b26:	80 93 a2 00 	sts	0x00A2, r24
}
    2b2a:	08 95       	ret

00002b2c <receiveRC5Data>:
	writeChar('\n');
}

void receiveRC5Data(void)
{
	if (kState == stationary && detecting)
    2b2c:	80 91 83 05 	lds	r24, 0x0583
    2b30:	83 30       	cpi	r24, 0x03	; 3
    2b32:	39 f4       	brne	.+14     	; 0x2b42 <receiveRC5Data+0x16>
    2b34:	80 91 09 01 	lds	r24, 0x0109
    2b38:	88 23       	and	r24, r24
    2b3a:	19 f0       	breq	.+6      	; 0x2b42 <receiveRC5Data+0x16>
	{
		detected = true;
    2b3c:	81 e0       	ldi	r24, 0x01	; 1
    2b3e:	80 93 08 01 	sts	0x0108, r24
    2b42:	08 95       	ret

00002b44 <acsStateChanged>:
	}
}

void acsStateChanged(void)
{
	if(kState==moving && (obstacle_left && obstacle_right))
    2b44:	80 91 83 05 	lds	r24, 0x0583
    2b48:	81 30       	cpi	r24, 0x01	; 1
    2b4a:	69 f4       	brne	.+26     	; 0x2b66 <acsStateChanged+0x22>
    2b4c:	80 91 5d 05 	lds	r24, 0x055D
    2b50:	88 23       	and	r24, r24
    2b52:	49 f0       	breq	.+18     	; 0x2b66 <acsStateChanged+0x22>
    2b54:	80 91 60 05 	lds	r24, 0x0560
    2b58:	88 23       	and	r24, r24
    2b5a:	29 f0       	breq	.+10     	; 0x2b66 <acsStateChanged+0x22>
	{
		beep(190,100);
    2b5c:	8e eb       	ldi	r24, 0xBE	; 190
    2b5e:	64 e6       	ldi	r22, 0x64	; 100
    2b60:	70 e0       	ldi	r23, 0x00	; 0
    2b62:	0e 94 cc 03 	call	0x798	; 0x798 <beep>
    2b66:	08 95       	ret

00002b68 <I2C_transmissionError>:
{
	checkRP6Status(dataRequestID);
}

void I2C_transmissionError(uint8_t errorState)
{
    2b68:	1f 93       	push	r17
    2b6a:	18 2f       	mov	r17, r24
	writeString_P("\nI2C ERROR - TWI STATE: 0x");
    2b6c:	84 ec       	ldi	r24, 0xC4	; 196
    2b6e:	90 e0       	ldi	r25, 0x00	; 0
    2b70:	0e 94 9a 05 	call	0xb34	; 0xb34 <writeNStringP>
	writeInteger(errorState, HEX);
    2b74:	81 2f       	mov	r24, r17
    2b76:	90 e0       	ldi	r25, 0x00	; 0
    2b78:	60 e1       	ldi	r22, 0x10	; 16
    2b7a:	0e 94 c5 05 	call	0xb8a	; 0xb8a <writeInteger>
	writeChar('\n');
    2b7e:	8a e0       	ldi	r24, 0x0A	; 10
    2b80:	0e 94 82 05 	call	0xb04	; 0xb04 <writeChar>
}
    2b84:	1f 91       	pop	r17
    2b86:	08 95       	ret

00002b88 <I2C_requestedDataReady>:
bool detected = false;
bool detecting = false;

void I2C_requestedDataReady(uint8_t dataRequestID)
{
	checkRP6Status(dataRequestID);
    2b88:	0e 94 47 0a 	call	0x148e	; 0x148e <checkRP6Status>
}
    2b8c:	08 95       	ret

00002b8e <readAvgADC>:
		beep(190,100);
	}
}

uint16_t readAvgADC(uint8_t channel, uint8_t samples)
{
    2b8e:	ef 92       	push	r14
    2b90:	ff 92       	push	r15
    2b92:	0f 93       	push	r16
    2b94:	1f 93       	push	r17
    2b96:	df 93       	push	r29
    2b98:	cf 93       	push	r28
    2b9a:	0f 92       	push	r0
    2b9c:	cd b7       	in	r28, 0x3d	; 61
    2b9e:	de b7       	in	r29, 0x3e	; 62
    2ba0:	18 2f       	mov	r17, r24
	uint8_t c = samples;
	uint16_t val=0;
	while(c--)
    2ba2:	06 2f       	mov	r16, r22
}

uint16_t readAvgADC(uint8_t channel, uint8_t samples)
{
	uint8_t c = samples;
	uint16_t val=0;
    2ba4:	ee 24       	eor	r14, r14
    2ba6:	ff 24       	eor	r15, r15
	while(c--)
    2ba8:	08 c0       	rjmp	.+16     	; 0x2bba <readAvgADC+0x2c>
		val+=readADC(channel);
    2baa:	81 2f       	mov	r24, r17
    2bac:	69 83       	std	Y+1, r22	; 0x01
    2bae:	0e 94 e1 01 	call	0x3c2	; 0x3c2 <readADC>
    2bb2:	e8 0e       	add	r14, r24
    2bb4:	f9 1e       	adc	r15, r25
    2bb6:	01 50       	subi	r16, 0x01	; 1
    2bb8:	69 81       	ldd	r22, Y+1	; 0x01

uint16_t readAvgADC(uint8_t channel, uint8_t samples)
{
	uint8_t c = samples;
	uint16_t val=0;
	while(c--)
    2bba:	00 23       	and	r16, r16
    2bbc:	b1 f7       	brne	.-20     	; 0x2baa <readAvgADC+0x1c>
		val+=readADC(channel);
	return val/samples;
    2bbe:	c7 01       	movw	r24, r14
    2bc0:	70 e0       	ldi	r23, 0x00	; 0
    2bc2:	0e 94 7f 1a 	call	0x34fe	; 0x34fe <__udivmodhi4>
}
    2bc6:	cb 01       	movw	r24, r22
    2bc8:	0f 90       	pop	r0
    2bca:	cf 91       	pop	r28
    2bcc:	df 91       	pop	r29
    2bce:	1f 91       	pop	r17
    2bd0:	0f 91       	pop	r16
    2bd2:	ff 90       	pop	r15
    2bd4:	ef 90       	pop	r14
    2bd6:	08 95       	ret

00002bd8 <wallIsLeft>:
//average wall is 160 in distance.
uint16_t higherAvgWallBoundary = 120;
uint16_t conditionedWallDistance;

bool wallIsLeft(void)
{
    2bd8:	cf 93       	push	r28
    2bda:	df 93       	push	r29
	//true if any of the left sensors report a value in between the range.

	uint16_t leftFront = readADC(ADC_5);
    2bdc:	85 e0       	ldi	r24, 0x05	; 5
    2bde:	0e 94 e1 01 	call	0x3c2	; 0x3c2 <readADC>
    2be2:	ec 01       	movw	r28, r24
	uint16_t leftBack = readADC(ADC_2);
    2be4:	82 e0       	ldi	r24, 0x02	; 2
    2be6:	0e 94 e1 01 	call	0x3c2	; 0x3c2 <readADC>

	uint16_t minLeft = ((leftFront > leftBack) ? leftFront : leftBack);
    2bea:	28 2f       	mov	r18, r24
    2bec:	39 2f       	mov	r19, r25
    2bee:	2c 17       	cp	r18, r28
    2bf0:	3d 07       	cpc	r19, r29
    2bf2:	08 f4       	brcc	.+2      	; 0x2bf6 <wallIsLeft+0x1e>
    2bf4:	9e 01       	movw	r18, r28

	return (minLeft >=higherAvgWallBoundary);
    2bf6:	81 e0       	ldi	r24, 0x01	; 1
    2bf8:	40 91 a3 00 	lds	r20, 0x00A3
    2bfc:	50 91 a4 00 	lds	r21, 0x00A4
    2c00:	24 17       	cp	r18, r20
    2c02:	35 07       	cpc	r19, r21
    2c04:	08 f4       	brcc	.+2      	; 0x2c08 <wallIsLeft+0x30>
    2c06:	80 e0       	ldi	r24, 0x00	; 0
}
    2c08:	df 91       	pop	r29
    2c0a:	cf 91       	pop	r28
    2c0c:	08 95       	ret

00002c0e <wallIsRight>:

bool wallIsRight(void)
{
    2c0e:	cf 93       	push	r28
    2c10:	df 93       	push	r29
	//true if any of the right sensors report a value in between the range.

	uint16_t rightFront = readADC(ADC_4);
    2c12:	84 e0       	ldi	r24, 0x04	; 4
    2c14:	0e 94 e1 01 	call	0x3c2	; 0x3c2 <readADC>
    2c18:	ec 01       	movw	r28, r24
	uint16_t rightBack = readADC(ADC_3);
    2c1a:	83 e0       	ldi	r24, 0x03	; 3
    2c1c:	0e 94 e1 01 	call	0x3c2	; 0x3c2 <readADC>

	uint16_t minRight = ((rightFront > rightBack) ? rightFront : rightBack);
    2c20:	28 2f       	mov	r18, r24
    2c22:	39 2f       	mov	r19, r25
    2c24:	2c 17       	cp	r18, r28
    2c26:	3d 07       	cpc	r19, r29
    2c28:	08 f4       	brcc	.+2      	; 0x2c2c <wallIsRight+0x1e>
    2c2a:	9e 01       	movw	r18, r28

	return (minRight >=higherAvgWallBoundary);
    2c2c:	81 e0       	ldi	r24, 0x01	; 1
    2c2e:	40 91 a3 00 	lds	r20, 0x00A3
    2c32:	50 91 a4 00 	lds	r21, 0x00A4
    2c36:	24 17       	cp	r18, r20
    2c38:	35 07       	cpc	r19, r21
    2c3a:	08 f4       	brcc	.+2      	; 0x2c3e <wallIsRight+0x30>
    2c3c:	80 e0       	ldi	r24, 0x00	; 0
}
    2c3e:	df 91       	pop	r29
    2c40:	cf 91       	pop	r28
    2c42:	08 95       	ret

00002c44 <wallIsFront>:

bool wallIsFront(void)
{
	return obstacle_left && obstacle_right;
    2c44:	80 91 5d 05 	lds	r24, 0x055D
    2c48:	88 23       	and	r24, r24
    2c4a:	49 f0       	breq	.+18     	; 0x2c5e <wallIsFront+0x1a>
	uint16_t minRight = ((rightFront > rightBack) ? rightFront : rightBack);

	return (minRight >=higherAvgWallBoundary);
}

bool wallIsFront(void)
    2c4c:	81 e0       	ldi	r24, 0x01	; 1
    2c4e:	90 e0       	ldi	r25, 0x00	; 0
    2c50:	20 91 60 05 	lds	r18, 0x0560
    2c54:	22 23       	and	r18, r18
    2c56:	29 f4       	brne	.+10     	; 0x2c62 <wallIsFront+0x1e>
    2c58:	80 e0       	ldi	r24, 0x00	; 0
    2c5a:	90 e0       	ldi	r25, 0x00	; 0
    2c5c:	08 95       	ret
{
	return obstacle_left && obstacle_right;
    2c5e:	80 e0       	ldi	r24, 0x00	; 0
    2c60:	90 e0       	ldi	r25, 0x00	; 0
}
    2c62:	08 95       	ret

00002c64 <initPositionControl>:

void initPositionControl(void)
{
	ACS_setStateChangedHandler(acsStateChanged);
    2c64:	82 ea       	ldi	r24, 0xA2	; 162
    2c66:	95 e1       	ldi	r25, 0x15	; 21
    2c68:	0e 94 a5 09 	call	0x134a	; 0x134a <ACS_setStateChangedHandler>
	IRCOMM_setRC5DataReadyHandler(receiveRC5Data);
    2c6c:	86 e9       	ldi	r24, 0x96	; 150
    2c6e:	95 e1       	ldi	r25, 0x15	; 21
    2c70:	0e 94 a0 09 	call	0x1340	; 0x1340 <IRCOMM_setRC5DataReadyHandler>

	I2CTWI_initMaster(100);
    2c74:	88 e4       	ldi	r24, 0x48	; 72
    2c76:	0e 94 b8 06 	call	0xd70	; 0xd70 <__I2CTWI_initMaster>
	I2CTWI_setTransmissionErrorHandler(I2C_transmissionError);
    2c7a:	84 eb       	ldi	r24, 0xB4	; 180
    2c7c:	95 e1       	ldi	r25, 0x15	; 21
    2c7e:	0e 94 cb 06 	call	0xd96	; 0xd96 <I2CTWI_setTransmissionErrorHandler>
	I2CTWI_setRequestedDataReadyHandler(I2C_requestedDataReady);
    2c82:	84 ec       	ldi	r24, 0xC4	; 196
    2c84:	95 e1       	ldi	r25, 0x15	; 21
    2c86:	0e 94 c6 06 	call	0xd8c	; 0xd8c <I2CTWI_setRequestedDataReadyHandler>


	mSleep(1000);
    2c8a:	88 ee       	ldi	r24, 0xE8	; 232
    2c8c:	93 e0       	ldi	r25, 0x03	; 3
    2c8e:	0e 94 f4 03 	call	0x7e8	; 0x7e8 <mSleep>

	// Setup ACS power:
	I2CTWI_transmit3Bytes(I2C_RP6_BASE_ADR, 0, CMD_SET_ACS_POWER, ACS_PWR_MED);
    2c92:	8a e0       	ldi	r24, 0x0A	; 10
    2c94:	60 e0       	ldi	r22, 0x00	; 0
    2c96:	49 e0       	ldi	r20, 0x09	; 9
    2c98:	22 e0       	ldi	r18, 0x02	; 2
    2c9a:	0e 94 99 08 	call	0x1132	; 0x1132 <I2CTWI_transmit3Bytes>

	setPortMode('a',ADC5,false);
    2c9e:	81 e6       	ldi	r24, 0x61	; 97
    2ca0:	60 e2       	ldi	r22, 0x20	; 32
    2ca2:	40 e0       	ldi	r20, 0x00	; 0
    2ca4:	0e 94 35 15 	call	0x2a6a	; 0x2a6a <setPortMode>
	setPortMode('a',ADC4,false);
    2ca8:	81 e6       	ldi	r24, 0x61	; 97
    2caa:	60 e1       	ldi	r22, 0x10	; 16
    2cac:	40 e0       	ldi	r20, 0x00	; 0
    2cae:	0e 94 35 15 	call	0x2a6a	; 0x2a6a <setPortMode>

	setPortMode('a',ADC3,false);
    2cb2:	81 e6       	ldi	r24, 0x61	; 97
    2cb4:	68 e0       	ldi	r22, 0x08	; 8
    2cb6:	40 e0       	ldi	r20, 0x00	; 0
    2cb8:	0e 94 35 15 	call	0x2a6a	; 0x2a6a <setPortMode>
	setPortMode('a',ADC2,false);
    2cbc:	81 e6       	ldi	r24, 0x61	; 97
    2cbe:	64 e0       	ldi	r22, 0x04	; 4
    2cc0:	40 e0       	ldi	r20, 0x00	; 0
    2cc2:	0e 94 35 15 	call	0x2a6a	; 0x2a6a <setPortMode>
}
    2cc6:	08 95       	ret

00002cc8 <updatePositionControl>:


void updatePositionControl(void)
{
	task_checkINT0();
    2cc8:	0e 94 37 0a 	call	0x146e	; 0x146e <task_checkINT0>
	task_I2CTWI();
    2ccc:	0e 94 fb 06 	call	0xdf6	; 0xdf6 <task_I2CTWI>
}
    2cd0:	08 95       	ret

00002cd2 <updateWallData>:

void updateWallData(void)
{
    2cd2:	0f 93       	push	r16
    2cd4:	1f 93       	push	r17
	bool left = wallIsLeft();
    2cd6:	0e 94 ec 15 	call	0x2bd8	; 0x2bd8 <wallIsLeft>
    2cda:	08 2f       	mov	r16, r24
	bool front = wallIsFront();
    2cdc:	0e 94 22 16 	call	0x2c44	; 0x2c44 <wallIsFront>
    2ce0:	18 2f       	mov	r17, r24
	bool right = wallIsRight();
    2ce2:	0e 94 07 16 	call	0x2c0e	; 0x2c0e <wallIsRight>
	if (mState == finding)
    2ce6:	90 91 f8 02 	lds	r25, 0x02F8
    2cea:	92 30       	cpi	r25, 0x02	; 2
    2cec:	09 f0       	breq	.+2      	; 0x2cf0 <updateWallData+0x1e>
    2cee:	d1 c0       	rjmp	.+418    	; 0x2e92 <updateWallData+0x1c0>
	{
		switch(dir)
    2cf0:	90 91 fb 02 	lds	r25, 0x02FB
    2cf4:	91 30       	cpi	r25, 0x01	; 1
    2cf6:	d1 f1       	breq	.+116    	; 0x2d6c <updateWallData+0x9a>
    2cf8:	91 30       	cpi	r25, 0x01	; 1
    2cfa:	38 f0       	brcs	.+14     	; 0x2d0a <updateWallData+0x38>
    2cfc:	92 30       	cpi	r25, 0x02	; 2
    2cfe:	09 f4       	brne	.+2      	; 0x2d02 <updateWallData+0x30>
    2d00:	66 c0       	rjmp	.+204    	; 0x2dce <updateWallData+0xfc>
    2d02:	93 30       	cpi	r25, 0x03	; 3
    2d04:	09 f0       	breq	.+2      	; 0x2d08 <updateWallData+0x36>
    2d06:	9c c1       	rjmp	.+824    	; 0x3040 <updateWallData+0x36e>
    2d08:	93 c0       	rjmp	.+294    	; 0x2e30 <updateWallData+0x15e>
		{
			case facingNorth: 	cells[cellCounter].west=left;
    2d0a:	40 91 01 01 	lds	r20, 0x0101
    2d0e:	90 91 02 01 	lds	r25, 0x0102
    2d12:	24 2f       	mov	r18, r20
    2d14:	39 2f       	mov	r19, r25
    2d16:	f9 01       	movw	r30, r18
    2d18:	ee 0f       	add	r30, r30
    2d1a:	ff 1f       	adc	r31, r31
    2d1c:	63 e0       	ldi	r22, 0x03	; 3
    2d1e:	22 0f       	add	r18, r18
    2d20:	33 1f       	adc	r19, r19
    2d22:	6a 95       	dec	r22
    2d24:	e1 f7       	brne	.-8      	; 0x2d1e <updateWallData+0x4c>
    2d26:	e2 0f       	add	r30, r18
    2d28:	f3 1f       	adc	r31, r19
    2d2a:	e4 50       	subi	r30, 0x04	; 4
    2d2c:	fd 4f       	sbci	r31, 0xFD	; 253
    2d2e:	03 83       	std	Z+3, r16	; 0x03
								cells[cellCounter].north=front;
    2d30:	24 2f       	mov	r18, r20
    2d32:	39 2f       	mov	r19, r25
    2d34:	f9 01       	movw	r30, r18
    2d36:	ee 0f       	add	r30, r30
    2d38:	ff 1f       	adc	r31, r31
    2d3a:	03 e0       	ldi	r16, 0x03	; 3
    2d3c:	22 0f       	add	r18, r18
    2d3e:	33 1f       	adc	r19, r19
    2d40:	0a 95       	dec	r16
    2d42:	e1 f7       	brne	.-8      	; 0x2d3c <updateWallData+0x6a>
    2d44:	e2 0f       	add	r30, r18
    2d46:	f3 1f       	adc	r31, r19
    2d48:	e4 50       	subi	r30, 0x04	; 4
    2d4a:	fd 4f       	sbci	r31, 0xFD	; 253
    2d4c:	10 83       	st	Z, r17
								cells[cellCounter].east=right; break;
    2d4e:	24 2f       	mov	r18, r20
    2d50:	39 2f       	mov	r19, r25
    2d52:	f9 01       	movw	r30, r18
    2d54:	ee 0f       	add	r30, r30
    2d56:	ff 1f       	adc	r31, r31
    2d58:	a3 e0       	ldi	r26, 0x03	; 3
    2d5a:	22 0f       	add	r18, r18
    2d5c:	33 1f       	adc	r19, r19
    2d5e:	aa 95       	dec	r26
    2d60:	e1 f7       	brne	.-8      	; 0x2d5a <updateWallData+0x88>
    2d62:	e2 0f       	add	r30, r18
    2d64:	f3 1f       	adc	r31, r19
    2d66:	e4 50       	subi	r30, 0x04	; 4
    2d68:	fd 4f       	sbci	r31, 0xFD	; 253
    2d6a:	d3 c0       	rjmp	.+422    	; 0x2f12 <updateWallData+0x240>
			case facingEast: 	cells[cellCounter].north=left;
    2d6c:	40 91 01 01 	lds	r20, 0x0101
    2d70:	90 91 02 01 	lds	r25, 0x0102
    2d74:	24 2f       	mov	r18, r20
    2d76:	39 2f       	mov	r19, r25
    2d78:	f9 01       	movw	r30, r18
    2d7a:	ee 0f       	add	r30, r30
    2d7c:	ff 1f       	adc	r31, r31
    2d7e:	63 e0       	ldi	r22, 0x03	; 3
    2d80:	22 0f       	add	r18, r18
    2d82:	33 1f       	adc	r19, r19
    2d84:	6a 95       	dec	r22
    2d86:	e1 f7       	brne	.-8      	; 0x2d80 <updateWallData+0xae>
    2d88:	e2 0f       	add	r30, r18
    2d8a:	f3 1f       	adc	r31, r19
    2d8c:	e4 50       	subi	r30, 0x04	; 4
    2d8e:	fd 4f       	sbci	r31, 0xFD	; 253
    2d90:	00 83       	st	Z, r16
								cells[cellCounter].east=front;
    2d92:	24 2f       	mov	r18, r20
    2d94:	39 2f       	mov	r19, r25
    2d96:	f9 01       	movw	r30, r18
    2d98:	ee 0f       	add	r30, r30
    2d9a:	ff 1f       	adc	r31, r31
    2d9c:	03 e0       	ldi	r16, 0x03	; 3
    2d9e:	22 0f       	add	r18, r18
    2da0:	33 1f       	adc	r19, r19
    2da2:	0a 95       	dec	r16
    2da4:	e1 f7       	brne	.-8      	; 0x2d9e <updateWallData+0xcc>
    2da6:	e2 0f       	add	r30, r18
    2da8:	f3 1f       	adc	r31, r19
    2daa:	e4 50       	subi	r30, 0x04	; 4
    2dac:	fd 4f       	sbci	r31, 0xFD	; 253
    2dae:	11 83       	std	Z+1, r17	; 0x01
								cells[cellCounter].south=right; break;
    2db0:	24 2f       	mov	r18, r20
    2db2:	39 2f       	mov	r19, r25
    2db4:	f9 01       	movw	r30, r18
    2db6:	ee 0f       	add	r30, r30
    2db8:	ff 1f       	adc	r31, r31
    2dba:	a3 e0       	ldi	r26, 0x03	; 3
    2dbc:	22 0f       	add	r18, r18
    2dbe:	33 1f       	adc	r19, r19
    2dc0:	aa 95       	dec	r26
    2dc2:	e1 f7       	brne	.-8      	; 0x2dbc <updateWallData+0xea>
    2dc4:	e2 0f       	add	r30, r18
    2dc6:	f3 1f       	adc	r31, r19
    2dc8:	e4 50       	subi	r30, 0x04	; 4
    2dca:	fd 4f       	sbci	r31, 0xFD	; 253
    2dcc:	d4 c0       	rjmp	.+424    	; 0x2f76 <updateWallData+0x2a4>
			case facingSouth: 	cells[cellCounter].east=left;
    2dce:	40 91 01 01 	lds	r20, 0x0101
    2dd2:	90 91 02 01 	lds	r25, 0x0102
    2dd6:	24 2f       	mov	r18, r20
    2dd8:	39 2f       	mov	r19, r25
    2dda:	f9 01       	movw	r30, r18
    2ddc:	ee 0f       	add	r30, r30
    2dde:	ff 1f       	adc	r31, r31
    2de0:	63 e0       	ldi	r22, 0x03	; 3
    2de2:	22 0f       	add	r18, r18
    2de4:	33 1f       	adc	r19, r19
    2de6:	6a 95       	dec	r22
    2de8:	e1 f7       	brne	.-8      	; 0x2de2 <updateWallData+0x110>
    2dea:	e2 0f       	add	r30, r18
    2dec:	f3 1f       	adc	r31, r19
    2dee:	e4 50       	subi	r30, 0x04	; 4
    2df0:	fd 4f       	sbci	r31, 0xFD	; 253
    2df2:	01 83       	std	Z+1, r16	; 0x01
								cells[cellCounter].south=front;
    2df4:	24 2f       	mov	r18, r20
    2df6:	39 2f       	mov	r19, r25
    2df8:	f9 01       	movw	r30, r18
    2dfa:	ee 0f       	add	r30, r30
    2dfc:	ff 1f       	adc	r31, r31
    2dfe:	03 e0       	ldi	r16, 0x03	; 3
    2e00:	22 0f       	add	r18, r18
    2e02:	33 1f       	adc	r19, r19
    2e04:	0a 95       	dec	r16
    2e06:	e1 f7       	brne	.-8      	; 0x2e00 <updateWallData+0x12e>
    2e08:	e2 0f       	add	r30, r18
    2e0a:	f3 1f       	adc	r31, r19
    2e0c:	e4 50       	subi	r30, 0x04	; 4
    2e0e:	fd 4f       	sbci	r31, 0xFD	; 253
    2e10:	12 83       	std	Z+2, r17	; 0x02
								cells[cellCounter].west=right; break;
    2e12:	24 2f       	mov	r18, r20
    2e14:	39 2f       	mov	r19, r25
    2e16:	f9 01       	movw	r30, r18
    2e18:	ee 0f       	add	r30, r30
    2e1a:	ff 1f       	adc	r31, r31
    2e1c:	a3 e0       	ldi	r26, 0x03	; 3
    2e1e:	22 0f       	add	r18, r18
    2e20:	33 1f       	adc	r19, r19
    2e22:	aa 95       	dec	r26
    2e24:	e1 f7       	brne	.-8      	; 0x2e1e <updateWallData+0x14c>
    2e26:	e2 0f       	add	r30, r18
    2e28:	f3 1f       	adc	r31, r19
    2e2a:	e4 50       	subi	r30, 0x04	; 4
    2e2c:	fd 4f       	sbci	r31, 0xFD	; 253
    2e2e:	d5 c0       	rjmp	.+426    	; 0x2fda <updateWallData+0x308>
			case facingWest: 	cells[cellCounter].south=left;
    2e30:	40 91 01 01 	lds	r20, 0x0101
    2e34:	90 91 02 01 	lds	r25, 0x0102
    2e38:	24 2f       	mov	r18, r20
    2e3a:	39 2f       	mov	r19, r25
    2e3c:	f9 01       	movw	r30, r18
    2e3e:	ee 0f       	add	r30, r30
    2e40:	ff 1f       	adc	r31, r31
    2e42:	63 e0       	ldi	r22, 0x03	; 3
    2e44:	22 0f       	add	r18, r18
    2e46:	33 1f       	adc	r19, r19
    2e48:	6a 95       	dec	r22
    2e4a:	e1 f7       	brne	.-8      	; 0x2e44 <updateWallData+0x172>
    2e4c:	e2 0f       	add	r30, r18
    2e4e:	f3 1f       	adc	r31, r19
    2e50:	e4 50       	subi	r30, 0x04	; 4
    2e52:	fd 4f       	sbci	r31, 0xFD	; 253
    2e54:	02 83       	std	Z+2, r16	; 0x02
								cells[cellCounter].west=front;
    2e56:	24 2f       	mov	r18, r20
    2e58:	39 2f       	mov	r19, r25
    2e5a:	f9 01       	movw	r30, r18
    2e5c:	ee 0f       	add	r30, r30
    2e5e:	ff 1f       	adc	r31, r31
    2e60:	03 e0       	ldi	r16, 0x03	; 3
    2e62:	22 0f       	add	r18, r18
    2e64:	33 1f       	adc	r19, r19
    2e66:	0a 95       	dec	r16
    2e68:	e1 f7       	brne	.-8      	; 0x2e62 <updateWallData+0x190>
    2e6a:	e2 0f       	add	r30, r18
    2e6c:	f3 1f       	adc	r31, r19
    2e6e:	e4 50       	subi	r30, 0x04	; 4
    2e70:	fd 4f       	sbci	r31, 0xFD	; 253
    2e72:	13 83       	std	Z+3, r17	; 0x03
								cells[cellCounter].north=right; break;
    2e74:	24 2f       	mov	r18, r20
    2e76:	39 2f       	mov	r19, r25
    2e78:	f9 01       	movw	r30, r18
    2e7a:	ee 0f       	add	r30, r30
    2e7c:	ff 1f       	adc	r31, r31
    2e7e:	a3 e0       	ldi	r26, 0x03	; 3
    2e80:	22 0f       	add	r18, r18
    2e82:	33 1f       	adc	r19, r19
    2e84:	aa 95       	dec	r26
    2e86:	e1 f7       	brne	.-8      	; 0x2e80 <updateWallData+0x1ae>
    2e88:	e2 0f       	add	r30, r18
    2e8a:	f3 1f       	adc	r31, r19
    2e8c:	e4 50       	subi	r30, 0x04	; 4
    2e8e:	fd 4f       	sbci	r31, 0xFD	; 253
    2e90:	d6 c0       	rjmp	.+428    	; 0x303e <updateWallData+0x36c>
		}
	}
	else if (mState == returning)
    2e92:	93 30       	cpi	r25, 0x03	; 3
    2e94:	09 f0       	breq	.+2      	; 0x2e98 <updateWallData+0x1c6>
    2e96:	d4 c0       	rjmp	.+424    	; 0x3040 <updateWallData+0x36e>
	{
		switch(dir)
    2e98:	90 91 fb 02 	lds	r25, 0x02FB
    2e9c:	91 30       	cpi	r25, 0x01	; 1
    2e9e:	d9 f1       	breq	.+118    	; 0x2f16 <updateWallData+0x244>
    2ea0:	91 30       	cpi	r25, 0x01	; 1
    2ea2:	38 f0       	brcs	.+14     	; 0x2eb2 <updateWallData+0x1e0>
    2ea4:	92 30       	cpi	r25, 0x02	; 2
    2ea6:	09 f4       	brne	.+2      	; 0x2eaa <updateWallData+0x1d8>
    2ea8:	68 c0       	rjmp	.+208    	; 0x2f7a <updateWallData+0x2a8>
    2eaa:	93 30       	cpi	r25, 0x03	; 3
    2eac:	09 f0       	breq	.+2      	; 0x2eb0 <updateWallData+0x1de>
    2eae:	c8 c0       	rjmp	.+400    	; 0x3040 <updateWallData+0x36e>
    2eb0:	96 c0       	rjmp	.+300    	; 0x2fde <updateWallData+0x30c>
		{
			case facingNorth: 	invCells[cellCounter].west=left;
    2eb2:	40 91 01 01 	lds	r20, 0x0101
    2eb6:	90 91 02 01 	lds	r25, 0x0102
    2eba:	24 2f       	mov	r18, r20
    2ebc:	39 2f       	mov	r19, r25
    2ebe:	f9 01       	movw	r30, r18
    2ec0:	ee 0f       	add	r30, r30
    2ec2:	ff 1f       	adc	r31, r31
    2ec4:	63 e0       	ldi	r22, 0x03	; 3
    2ec6:	22 0f       	add	r18, r18
    2ec8:	33 1f       	adc	r19, r19
    2eca:	6a 95       	dec	r22
    2ecc:	e1 f7       	brne	.-8      	; 0x2ec6 <updateWallData+0x1f4>
    2ece:	e2 0f       	add	r30, r18
    2ed0:	f3 1f       	adc	r31, r19
    2ed2:	e3 5f       	subi	r30, 0xF3	; 243
    2ed4:	fe 4f       	sbci	r31, 0xFE	; 254
    2ed6:	03 83       	std	Z+3, r16	; 0x03
								invCells[cellCounter].north=front;
    2ed8:	24 2f       	mov	r18, r20
    2eda:	39 2f       	mov	r19, r25
    2edc:	f9 01       	movw	r30, r18
    2ede:	ee 0f       	add	r30, r30
    2ee0:	ff 1f       	adc	r31, r31
    2ee2:	03 e0       	ldi	r16, 0x03	; 3
    2ee4:	22 0f       	add	r18, r18
    2ee6:	33 1f       	adc	r19, r19
    2ee8:	0a 95       	dec	r16
    2eea:	e1 f7       	brne	.-8      	; 0x2ee4 <updateWallData+0x212>
    2eec:	e2 0f       	add	r30, r18
    2eee:	f3 1f       	adc	r31, r19
    2ef0:	e3 5f       	subi	r30, 0xF3	; 243
    2ef2:	fe 4f       	sbci	r31, 0xFE	; 254
    2ef4:	10 83       	st	Z, r17
								invCells[cellCounter].east=right; break;
    2ef6:	24 2f       	mov	r18, r20
    2ef8:	39 2f       	mov	r19, r25
    2efa:	f9 01       	movw	r30, r18
    2efc:	ee 0f       	add	r30, r30
    2efe:	ff 1f       	adc	r31, r31
    2f00:	a3 e0       	ldi	r26, 0x03	; 3
    2f02:	22 0f       	add	r18, r18
    2f04:	33 1f       	adc	r19, r19
    2f06:	aa 95       	dec	r26
    2f08:	e1 f7       	brne	.-8      	; 0x2f02 <updateWallData+0x230>
    2f0a:	e2 0f       	add	r30, r18
    2f0c:	f3 1f       	adc	r31, r19
    2f0e:	e3 5f       	subi	r30, 0xF3	; 243
    2f10:	fe 4f       	sbci	r31, 0xFE	; 254
    2f12:	81 83       	std	Z+1, r24	; 0x01
    2f14:	95 c0       	rjmp	.+298    	; 0x3040 <updateWallData+0x36e>
			case facingEast: 	invCells[cellCounter].north=left;
    2f16:	40 91 01 01 	lds	r20, 0x0101
    2f1a:	90 91 02 01 	lds	r25, 0x0102
    2f1e:	24 2f       	mov	r18, r20
    2f20:	39 2f       	mov	r19, r25
    2f22:	f9 01       	movw	r30, r18
    2f24:	ee 0f       	add	r30, r30
    2f26:	ff 1f       	adc	r31, r31
    2f28:	63 e0       	ldi	r22, 0x03	; 3
    2f2a:	22 0f       	add	r18, r18
    2f2c:	33 1f       	adc	r19, r19
    2f2e:	6a 95       	dec	r22
    2f30:	e1 f7       	brne	.-8      	; 0x2f2a <updateWallData+0x258>
    2f32:	e2 0f       	add	r30, r18
    2f34:	f3 1f       	adc	r31, r19
    2f36:	e3 5f       	subi	r30, 0xF3	; 243
    2f38:	fe 4f       	sbci	r31, 0xFE	; 254
    2f3a:	00 83       	st	Z, r16
								invCells[cellCounter].east=front;
    2f3c:	24 2f       	mov	r18, r20
    2f3e:	39 2f       	mov	r19, r25
    2f40:	f9 01       	movw	r30, r18
    2f42:	ee 0f       	add	r30, r30
    2f44:	ff 1f       	adc	r31, r31
    2f46:	03 e0       	ldi	r16, 0x03	; 3
    2f48:	22 0f       	add	r18, r18
    2f4a:	33 1f       	adc	r19, r19
    2f4c:	0a 95       	dec	r16
    2f4e:	e1 f7       	brne	.-8      	; 0x2f48 <updateWallData+0x276>
    2f50:	e2 0f       	add	r30, r18
    2f52:	f3 1f       	adc	r31, r19
    2f54:	e3 5f       	subi	r30, 0xF3	; 243
    2f56:	fe 4f       	sbci	r31, 0xFE	; 254
    2f58:	11 83       	std	Z+1, r17	; 0x01
								invCells[cellCounter].south=right; break;
    2f5a:	24 2f       	mov	r18, r20
    2f5c:	39 2f       	mov	r19, r25
    2f5e:	f9 01       	movw	r30, r18
    2f60:	ee 0f       	add	r30, r30
    2f62:	ff 1f       	adc	r31, r31
    2f64:	a3 e0       	ldi	r26, 0x03	; 3
    2f66:	22 0f       	add	r18, r18
    2f68:	33 1f       	adc	r19, r19
    2f6a:	aa 95       	dec	r26
    2f6c:	e1 f7       	brne	.-8      	; 0x2f66 <updateWallData+0x294>
    2f6e:	e2 0f       	add	r30, r18
    2f70:	f3 1f       	adc	r31, r19
    2f72:	e3 5f       	subi	r30, 0xF3	; 243
    2f74:	fe 4f       	sbci	r31, 0xFE	; 254
    2f76:	82 83       	std	Z+2, r24	; 0x02
    2f78:	63 c0       	rjmp	.+198    	; 0x3040 <updateWallData+0x36e>
			case facingSouth: 	invCells[cellCounter].east=left;
    2f7a:	40 91 01 01 	lds	r20, 0x0101
    2f7e:	90 91 02 01 	lds	r25, 0x0102
    2f82:	24 2f       	mov	r18, r20
    2f84:	39 2f       	mov	r19, r25
    2f86:	f9 01       	movw	r30, r18
    2f88:	ee 0f       	add	r30, r30
    2f8a:	ff 1f       	adc	r31, r31
    2f8c:	63 e0       	ldi	r22, 0x03	; 3
    2f8e:	22 0f       	add	r18, r18
    2f90:	33 1f       	adc	r19, r19
    2f92:	6a 95       	dec	r22
    2f94:	e1 f7       	brne	.-8      	; 0x2f8e <updateWallData+0x2bc>
    2f96:	e2 0f       	add	r30, r18
    2f98:	f3 1f       	adc	r31, r19
    2f9a:	e3 5f       	subi	r30, 0xF3	; 243
    2f9c:	fe 4f       	sbci	r31, 0xFE	; 254
    2f9e:	01 83       	std	Z+1, r16	; 0x01
								invCells[cellCounter].south=front;
    2fa0:	24 2f       	mov	r18, r20
    2fa2:	39 2f       	mov	r19, r25
    2fa4:	f9 01       	movw	r30, r18
    2fa6:	ee 0f       	add	r30, r30
    2fa8:	ff 1f       	adc	r31, r31
    2faa:	03 e0       	ldi	r16, 0x03	; 3
    2fac:	22 0f       	add	r18, r18
    2fae:	33 1f       	adc	r19, r19
    2fb0:	0a 95       	dec	r16
    2fb2:	e1 f7       	brne	.-8      	; 0x2fac <updateWallData+0x2da>
    2fb4:	e2 0f       	add	r30, r18
    2fb6:	f3 1f       	adc	r31, r19
    2fb8:	e3 5f       	subi	r30, 0xF3	; 243
    2fba:	fe 4f       	sbci	r31, 0xFE	; 254
    2fbc:	12 83       	std	Z+2, r17	; 0x02
								invCells[cellCounter].west=right; break;
    2fbe:	24 2f       	mov	r18, r20
    2fc0:	39 2f       	mov	r19, r25
    2fc2:	f9 01       	movw	r30, r18
    2fc4:	ee 0f       	add	r30, r30
    2fc6:	ff 1f       	adc	r31, r31
    2fc8:	b3 e0       	ldi	r27, 0x03	; 3
    2fca:	22 0f       	add	r18, r18
    2fcc:	33 1f       	adc	r19, r19
    2fce:	ba 95       	dec	r27
    2fd0:	e1 f7       	brne	.-8      	; 0x2fca <updateWallData+0x2f8>
    2fd2:	e2 0f       	add	r30, r18
    2fd4:	f3 1f       	adc	r31, r19
    2fd6:	e3 5f       	subi	r30, 0xF3	; 243
    2fd8:	fe 4f       	sbci	r31, 0xFE	; 254
    2fda:	83 83       	std	Z+3, r24	; 0x03
    2fdc:	31 c0       	rjmp	.+98     	; 0x3040 <updateWallData+0x36e>
			case facingWest: 	invCells[cellCounter].south=left;
    2fde:	40 91 01 01 	lds	r20, 0x0101
    2fe2:	90 91 02 01 	lds	r25, 0x0102
    2fe6:	24 2f       	mov	r18, r20
    2fe8:	39 2f       	mov	r19, r25
    2fea:	f9 01       	movw	r30, r18
    2fec:	ee 0f       	add	r30, r30
    2fee:	ff 1f       	adc	r31, r31
    2ff0:	73 e0       	ldi	r23, 0x03	; 3
    2ff2:	22 0f       	add	r18, r18
    2ff4:	33 1f       	adc	r19, r19
    2ff6:	7a 95       	dec	r23
    2ff8:	e1 f7       	brne	.-8      	; 0x2ff2 <updateWallData+0x320>
    2ffa:	e2 0f       	add	r30, r18
    2ffc:	f3 1f       	adc	r31, r19
    2ffe:	e3 5f       	subi	r30, 0xF3	; 243
    3000:	fe 4f       	sbci	r31, 0xFE	; 254
    3002:	02 83       	std	Z+2, r16	; 0x02
								invCells[cellCounter].west=front;
    3004:	24 2f       	mov	r18, r20
    3006:	39 2f       	mov	r19, r25
    3008:	f9 01       	movw	r30, r18
    300a:	ee 0f       	add	r30, r30
    300c:	ff 1f       	adc	r31, r31
    300e:	53 e0       	ldi	r21, 0x03	; 3
    3010:	22 0f       	add	r18, r18
    3012:	33 1f       	adc	r19, r19
    3014:	5a 95       	dec	r21
    3016:	e1 f7       	brne	.-8      	; 0x3010 <updateWallData+0x33e>
    3018:	e2 0f       	add	r30, r18
    301a:	f3 1f       	adc	r31, r19
    301c:	e3 5f       	subi	r30, 0xF3	; 243
    301e:	fe 4f       	sbci	r31, 0xFE	; 254
    3020:	13 83       	std	Z+3, r17	; 0x03
								invCells[cellCounter].north=right; break;
    3022:	24 2f       	mov	r18, r20
    3024:	39 2f       	mov	r19, r25
    3026:	f9 01       	movw	r30, r18
    3028:	ee 0f       	add	r30, r30
    302a:	ff 1f       	adc	r31, r31
    302c:	93 e0       	ldi	r25, 0x03	; 3
    302e:	22 0f       	add	r18, r18
    3030:	33 1f       	adc	r19, r19
    3032:	9a 95       	dec	r25
    3034:	e1 f7       	brne	.-8      	; 0x302e <updateWallData+0x35c>
    3036:	e2 0f       	add	r30, r18
    3038:	f3 1f       	adc	r31, r19
    303a:	e3 5f       	subi	r30, 0xF3	; 243
    303c:	fe 4f       	sbci	r31, 0xFE	; 254
    303e:	80 83       	st	Z, r24
		}
	}
}
    3040:	1f 91       	pop	r17
    3042:	0f 91       	pop	r16
    3044:	08 95       	ret

00003046 <show_WAITINGFORBRIEFING>:
#include "RP6ControlLib.h"
#include "CoreControl.h"

void show_WAITINGFORBRIEFING(void)
{
	clearLCD();
    3046:	0e 94 f6 04 	call	0x9ec	; 0x9ec <clearLCD>
	showScreenLCD("Waiting for","briefing.");
    304a:	80 ef       	ldi	r24, 0xF0	; 240
    304c:	91 e0       	ldi	r25, 0x01	; 1
    304e:	66 ee       	ldi	r22, 0xE6	; 230
    3050:	71 e0       	ldi	r23, 0x01	; 1
    3052:	0e 94 fe 04 	call	0x9fc	; 0x9fc <_showScreenLCD_P>
}
    3056:	08 95       	ret

00003058 <show_WAITINGFORDEBRIEFING>:

void show_WAITINGFORDEBRIEFING(void)
{
	clearLCD();
    3058:	0e 94 f6 04 	call	0x9ec	; 0x9ec <clearLCD>
	showScreenLCD("Waiting for","debriefing.");
    305c:	8a ed       	ldi	r24, 0xDA	; 218
    305e:	91 e0       	ldi	r25, 0x01	; 1
    3060:	6e ec       	ldi	r22, 0xCE	; 206
    3062:	71 e0       	ldi	r23, 0x01	; 1
    3064:	0e 94 fe 04 	call	0x9fc	; 0x9fc <_showScreenLCD_P>
}
    3068:	08 95       	ret

0000306a <show_BRIEFINGRECEIVED>:

void show_BRIEFINGRECEIVED(uint8_t x, uint8_t y, uint8_t dir)
{
    306a:	0f 93       	push	r16
    306c:	1f 93       	push	r17
    306e:	df 93       	push	r29
    3070:	cf 93       	push	r28
    3072:	0f 92       	push	r0
    3074:	cd b7       	in	r28, 0x3d	; 61
    3076:	de b7       	in	r29, 0x3e	; 62
    3078:	08 2f       	mov	r16, r24
    307a:	16 2f       	mov	r17, r22
	clearLCD();
    307c:	49 83       	std	Y+1, r20	; 0x01
    307e:	0e 94 f6 04 	call	0x9ec	; 0x9ec <clearLCD>
	showScreenLCD("Briefing:","X:  Y:  D:  ");
    3082:	84 ec       	ldi	r24, 0xC4	; 196
    3084:	91 e0       	ldi	r25, 0x01	; 1
    3086:	67 eb       	ldi	r22, 0xB7	; 183
    3088:	71 e0       	ldi	r23, 0x01	; 1
    308a:	0e 94 fe 04 	call	0x9fc	; 0x9fc <_showScreenLCD_P>
	setCursorPosLCD(1,2);
    308e:	81 e0       	ldi	r24, 0x01	; 1
    3090:	62 e0       	ldi	r22, 0x02	; 2
    3092:	0e 94 e1 04 	call	0x9c2	; 0x9c2 <setCursorPosLCD>
	writeIntegerLCD(x,10);
    3096:	80 2f       	mov	r24, r16
    3098:	90 e0       	ldi	r25, 0x00	; 0
    309a:	6a e0       	ldi	r22, 0x0A	; 10
    309c:	0e 94 7b 04 	call	0x8f6	; 0x8f6 <writeIntegerLCD>
	setCursorPosLCD(1,6);
    30a0:	81 e0       	ldi	r24, 0x01	; 1
    30a2:	66 e0       	ldi	r22, 0x06	; 6
    30a4:	0e 94 e1 04 	call	0x9c2	; 0x9c2 <setCursorPosLCD>
	writeIntegerLCD(y,10);
    30a8:	81 2f       	mov	r24, r17
    30aa:	90 e0       	ldi	r25, 0x00	; 0
    30ac:	6a e0       	ldi	r22, 0x0A	; 10
    30ae:	0e 94 7b 04 	call	0x8f6	; 0x8f6 <writeIntegerLCD>
	setCursorPosLCD(1,10);
    30b2:	81 e0       	ldi	r24, 0x01	; 1
    30b4:	6a e0       	ldi	r22, 0x0A	; 10
    30b6:	0e 94 e1 04 	call	0x9c2	; 0x9c2 <setCursorPosLCD>
	writeIntegerLCD(dir,10);
    30ba:	49 81       	ldd	r20, Y+1	; 0x01
    30bc:	84 2f       	mov	r24, r20
    30be:	90 e0       	ldi	r25, 0x00	; 0
    30c0:	6a e0       	ldi	r22, 0x0A	; 10
    30c2:	0e 94 7b 04 	call	0x8f6	; 0x8f6 <writeIntegerLCD>

}
    30c6:	0f 90       	pop	r0
    30c8:	cf 91       	pop	r28
    30ca:	df 91       	pop	r29
    30cc:	1f 91       	pop	r17
    30ce:	0f 91       	pop	r16
    30d0:	08 95       	ret

000030d2 <show_PLACEMEATPOSITION>:

void show_PLACEMEATPOSITION(uint8_t x, uint8_t y, uint8_t dir)
{
    30d2:	0f 93       	push	r16
    30d4:	1f 93       	push	r17
    30d6:	df 93       	push	r29
    30d8:	cf 93       	push	r28
    30da:	0f 92       	push	r0
    30dc:	cd b7       	in	r28, 0x3d	; 61
    30de:	de b7       	in	r29, 0x3e	; 62
    30e0:	08 2f       	mov	r16, r24
    30e2:	16 2f       	mov	r17, r22
	clearLCD();
    30e4:	49 83       	std	Y+1, r20	; 0x01
    30e6:	0e 94 f6 04 	call	0x9ec	; 0x9ec <clearLCD>
	showScreenLCD("Place me at:","X:  Y:  D:  ");
    30ea:	8a ea       	ldi	r24, 0xAA	; 170
    30ec:	91 e0       	ldi	r25, 0x01	; 1
    30ee:	6d e9       	ldi	r22, 0x9D	; 157
    30f0:	71 e0       	ldi	r23, 0x01	; 1
    30f2:	0e 94 fe 04 	call	0x9fc	; 0x9fc <_showScreenLCD_P>
	setCursorPosLCD(1,2);
    30f6:	81 e0       	ldi	r24, 0x01	; 1
    30f8:	62 e0       	ldi	r22, 0x02	; 2
    30fa:	0e 94 e1 04 	call	0x9c2	; 0x9c2 <setCursorPosLCD>
	writeIntegerLCD(x,10);
    30fe:	80 2f       	mov	r24, r16
    3100:	90 e0       	ldi	r25, 0x00	; 0
    3102:	6a e0       	ldi	r22, 0x0A	; 10
    3104:	0e 94 7b 04 	call	0x8f6	; 0x8f6 <writeIntegerLCD>
	setCursorPosLCD(1,6);
    3108:	81 e0       	ldi	r24, 0x01	; 1
    310a:	66 e0       	ldi	r22, 0x06	; 6
    310c:	0e 94 e1 04 	call	0x9c2	; 0x9c2 <setCursorPosLCD>
	writeIntegerLCD(y,10);
    3110:	81 2f       	mov	r24, r17
    3112:	90 e0       	ldi	r25, 0x00	; 0
    3114:	6a e0       	ldi	r22, 0x0A	; 10
    3116:	0e 94 7b 04 	call	0x8f6	; 0x8f6 <writeIntegerLCD>
	setCursorPosLCD(1,10);
    311a:	81 e0       	ldi	r24, 0x01	; 1
    311c:	6a e0       	ldi	r22, 0x0A	; 10
    311e:	0e 94 e1 04 	call	0x9c2	; 0x9c2 <setCursorPosLCD>
	writeIntegerLCD(dir,10);
    3122:	49 81       	ldd	r20, Y+1	; 0x01
    3124:	84 2f       	mov	r24, r20
    3126:	90 e0       	ldi	r25, 0x00	; 0
    3128:	6a e0       	ldi	r22, 0x0A	; 10
    312a:	0e 94 7b 04 	call	0x8f6	; 0x8f6 <writeIntegerLCD>
}
    312e:	0f 90       	pop	r0
    3130:	cf 91       	pop	r28
    3132:	df 91       	pop	r29
    3134:	1f 91       	pop	r17
    3136:	0f 91       	pop	r16
    3138:	08 95       	ret

0000313a <show_SPEED>:


void show_SPEED(uint8_t left, uint8_t right)
{
    313a:	0f 93       	push	r16
    313c:	1f 93       	push	r17
    313e:	08 2f       	mov	r16, r24
    3140:	16 2f       	mov	r17, r22
	clearLCD();
    3142:	0e 94 f6 04 	call	0x9ec	; 0x9ec <clearLCD>
	showScreenLCD("L:    R:","");
    3146:	84 e9       	ldi	r24, 0x94	; 148
    3148:	91 e0       	ldi	r25, 0x01	; 1
    314a:	63 e9       	ldi	r22, 0x93	; 147
    314c:	71 e0       	ldi	r23, 0x01	; 1
    314e:	0e 94 fe 04 	call	0x9fc	; 0x9fc <_showScreenLCD_P>
	setCursorPosLCD(1,3);
    3152:	81 e0       	ldi	r24, 0x01	; 1
    3154:	63 e0       	ldi	r22, 0x03	; 3
    3156:	0e 94 e1 04 	call	0x9c2	; 0x9c2 <setCursorPosLCD>
	writeIntegerLCD(left,10);
    315a:	80 2f       	mov	r24, r16
    315c:	90 e0       	ldi	r25, 0x00	; 0
    315e:	6a e0       	ldi	r22, 0x0A	; 10
    3160:	0e 94 7b 04 	call	0x8f6	; 0x8f6 <writeIntegerLCD>
	setCursorPosLCD(1,10);
    3164:	81 e0       	ldi	r24, 0x01	; 1
    3166:	6a e0       	ldi	r22, 0x0A	; 10
    3168:	0e 94 e1 04 	call	0x9c2	; 0x9c2 <setCursorPosLCD>
	writeIntegerLCD(right,10);
    316c:	81 2f       	mov	r24, r17
    316e:	90 e0       	ldi	r25, 0x00	; 0
    3170:	6a e0       	ldi	r22, 0x0A	; 10
    3172:	0e 94 7b 04 	call	0x8f6	; 0x8f6 <writeIntegerLCD>
}
    3176:	1f 91       	pop	r17
    3178:	0f 91       	pop	r16
    317a:	08 95       	ret

0000317c <show_STARTEDFINDING>:

void show_STARTEDFINDING(void)
{
	clearLCD();
    317c:	0e 94 f6 04 	call	0x9ec	; 0x9ec <clearLCD>
	showScreenLCD("Started Finding","Process");
    3180:	83 e8       	ldi	r24, 0x83	; 131
    3182:	91 e0       	ldi	r25, 0x01	; 1
    3184:	6b e7       	ldi	r22, 0x7B	; 123
    3186:	71 e0       	ldi	r23, 0x01	; 1
    3188:	0e 94 fe 04 	call	0x9fc	; 0x9fc <_showScreenLCD_P>
}
    318c:	08 95       	ret

0000318e <show_ENTERCELL>:

void show_ENTERCELL(void)
{
	clearLCD();
    318e:	0e 94 f6 04 	call	0x9ec	; 0x9ec <clearLCD>
	showScreenLCD("Entering Cell","");
    3192:	8d e6       	ldi	r24, 0x6D	; 109
    3194:	91 e0       	ldi	r25, 0x01	; 1
    3196:	6c e6       	ldi	r22, 0x6C	; 108
    3198:	71 e0       	ldi	r23, 0x01	; 1
    319a:	0e 94 fe 04 	call	0x9fc	; 0x9fc <_showScreenLCD_P>
}
    319e:	08 95       	ret

000031a0 <show_LEAVECELL>:

void show_LEAVECELL(void)
{
	clearLCD();
    31a0:	0e 94 f6 04 	call	0x9ec	; 0x9ec <clearLCD>
	showScreenLCD("Leaving Cell","");
    31a4:	8f e5       	ldi	r24, 0x5F	; 95
    31a6:	91 e0       	ldi	r25, 0x01	; 1
    31a8:	6e e5       	ldi	r22, 0x5E	; 94
    31aa:	71 e0       	ldi	r23, 0x01	; 1
    31ac:	0e 94 fe 04 	call	0x9fc	; 0x9fc <_showScreenLCD_P>
}
    31b0:	08 95       	ret

000031b2 <show_ACTION>:

void show_ACTION(action a)
{
    31b2:	df 93       	push	r29
    31b4:	cf 93       	push	r28
    31b6:	0f 92       	push	r0
    31b8:	cd b7       	in	r28, 0x3d	; 61
    31ba:	de b7       	in	r29, 0x3e	; 62
	clearLCD();
    31bc:	89 83       	std	Y+1, r24	; 0x01
    31be:	0e 94 f6 04 	call	0x9ec	; 0x9ec <clearLCD>
	switch (a)
    31c2:	89 81       	ldd	r24, Y+1	; 0x01
    31c4:	81 30       	cpi	r24, 0x01	; 1
    31c6:	89 f0       	breq	.+34     	; 0x31ea <show_ACTION+0x38>
    31c8:	81 30       	cpi	r24, 0x01	; 1
    31ca:	28 f0       	brcs	.+10     	; 0x31d6 <show_ACTION+0x24>
    31cc:	82 30       	cpi	r24, 0x02	; 2
    31ce:	41 f0       	breq	.+16     	; 0x31e0 <show_ACTION+0x2e>
    31d0:	83 30       	cpi	r24, 0x03	; 3
    31d2:	b1 f4       	brne	.+44     	; 0x3200 <show_ACTION+0x4e>
    31d4:	0f c0       	rjmp	.+30     	; 0x31f4 <show_ACTION+0x42>
	{
		case tLeft: showScreenLCD("Turning Left","");break;
    31d6:	81 e5       	ldi	r24, 0x51	; 81
    31d8:	91 e0       	ldi	r25, 0x01	; 1
    31da:	60 e5       	ldi	r22, 0x50	; 80
    31dc:	71 e0       	ldi	r23, 0x01	; 1
    31de:	0e c0       	rjmp	.+28     	; 0x31fc <show_ACTION+0x4a>
		case mForward: showScreenLCD("Moving Forward","");break;
    31e0:	81 e4       	ldi	r24, 0x41	; 65
    31e2:	91 e0       	ldi	r25, 0x01	; 1
    31e4:	60 e4       	ldi	r22, 0x40	; 64
    31e6:	71 e0       	ldi	r23, 0x01	; 1
    31e8:	09 c0       	rjmp	.+18     	; 0x31fc <show_ACTION+0x4a>
		case tRight: showScreenLCD("Turning Right","");break;
    31ea:	82 e3       	ldi	r24, 0x32	; 50
    31ec:	91 e0       	ldi	r25, 0x01	; 1
    31ee:	61 e3       	ldi	r22, 0x31	; 49
    31f0:	71 e0       	ldi	r23, 0x01	; 1
    31f2:	04 c0       	rjmp	.+8      	; 0x31fc <show_ACTION+0x4a>
		case t180: showScreenLCD("Turning 180","");break;
    31f4:	85 e2       	ldi	r24, 0x25	; 37
    31f6:	91 e0       	ldi	r25, 0x01	; 1
    31f8:	64 e2       	ldi	r22, 0x24	; 36
    31fa:	71 e0       	ldi	r23, 0x01	; 1
    31fc:	0e 94 fe 04 	call	0x9fc	; 0x9fc <_showScreenLCD_P>
	}
}
    3200:	0f 90       	pop	r0
    3202:	cf 91       	pop	r28
    3204:	df 91       	pop	r29
    3206:	08 95       	ret

00003208 <show_WHICHWALL>:

void show_WHICHWALL(bool north, bool east, bool south, bool west)
{
    3208:	ff 92       	push	r15
    320a:	0f 93       	push	r16
    320c:	1f 93       	push	r17
    320e:	df 93       	push	r29
    3210:	cf 93       	push	r28
    3212:	0f 92       	push	r0
    3214:	cd b7       	in	r28, 0x3d	; 61
    3216:	de b7       	in	r29, 0x3e	; 62
    3218:	16 2f       	mov	r17, r22
    321a:	04 2f       	mov	r16, r20
    321c:	f2 2e       	mov	r15, r18
	clearLCD();
    321e:	89 83       	std	Y+1, r24	; 0x01
    3220:	0e 94 f6 04 	call	0x9ec	; 0x9ec <clearLCD>
	if(north)
    3224:	89 81       	ldd	r24, Y+1	; 0x01
    3226:	88 23       	and	r24, r24
    3228:	41 f0       	breq	.+16     	; 0x323a <show_WHICHWALL+0x32>
	{
		setCursorPosLCD(0,8);
    322a:	80 e0       	ldi	r24, 0x00	; 0
    322c:	68 e0       	ldi	r22, 0x08	; 8
    322e:	0e 94 e1 04 	call	0x9c2	; 0x9c2 <setCursorPosLCD>
		writeStringLCD("N");
    3232:	85 ea       	ldi	r24, 0xA5	; 165
    3234:	90 e0       	ldi	r25, 0x00	; 0
    3236:	0e 94 67 04 	call	0x8ce	; 0x8ce <writeStringLCD>
	}
	if(east)
    323a:	11 23       	and	r17, r17
    323c:	41 f0       	breq	.+16     	; 0x324e <show_WHICHWALL+0x46>
	{
		setCursorPosLCD(1,0);
    323e:	81 e0       	ldi	r24, 0x01	; 1
    3240:	60 e0       	ldi	r22, 0x00	; 0
    3242:	0e 94 e1 04 	call	0x9c2	; 0x9c2 <setCursorPosLCD>
		writeStringLCD("E");
    3246:	87 ea       	ldi	r24, 0xA7	; 167
    3248:	90 e0       	ldi	r25, 0x00	; 0
    324a:	0e 94 67 04 	call	0x8ce	; 0x8ce <writeStringLCD>
	}
	if(south)
    324e:	00 23       	and	r16, r16
    3250:	41 f0       	breq	.+16     	; 0x3262 <show_WHICHWALL+0x5a>
	{
		setCursorPosLCD(1,8);
    3252:	81 e0       	ldi	r24, 0x01	; 1
    3254:	68 e0       	ldi	r22, 0x08	; 8
    3256:	0e 94 e1 04 	call	0x9c2	; 0x9c2 <setCursorPosLCD>
		writeStringLCD("S");
    325a:	89 ea       	ldi	r24, 0xA9	; 169
    325c:	90 e0       	ldi	r25, 0x00	; 0
    325e:	0e 94 67 04 	call	0x8ce	; 0x8ce <writeStringLCD>
	}
	if(west)
    3262:	ff 20       	and	r15, r15
    3264:	41 f0       	breq	.+16     	; 0x3276 <show_WHICHWALL+0x6e>
	{
		setCursorPosLCD(1,15);
    3266:	81 e0       	ldi	r24, 0x01	; 1
    3268:	6f e0       	ldi	r22, 0x0F	; 15
    326a:	0e 94 e1 04 	call	0x9c2	; 0x9c2 <setCursorPosLCD>
		writeStringLCD("W");
    326e:	8b ea       	ldi	r24, 0xAB	; 171
    3270:	90 e0       	ldi	r25, 0x00	; 0
    3272:	0e 94 67 04 	call	0x8ce	; 0x8ce <writeStringLCD>
	}
}
    3276:	0f 90       	pop	r0
    3278:	cf 91       	pop	r28
    327a:	df 91       	pop	r29
    327c:	1f 91       	pop	r17
    327e:	0f 91       	pop	r16
    3280:	ff 90       	pop	r15
    3282:	08 95       	ret

00003284 <show_LOOKINGFORBEACON>:

void show_LOOKINGFORBEACON(void)
{
	clearLCD();
    3284:	0e 94 f6 04 	call	0x9ec	; 0x9ec <clearLCD>
	showScreenLCD("Looking for","beacon");
    3288:	88 e1       	ldi	r24, 0x18	; 24
    328a:	91 e0       	ldi	r25, 0x01	; 1
    328c:	61 e1       	ldi	r22, 0x11	; 17
    328e:	71 e0       	ldi	r23, 0x01	; 1
    3290:	0e 94 fe 04 	call	0x9fc	; 0x9fc <_showScreenLCD_P>
}
    3294:	08 95       	ret

00003296 <show_BEHOLDTHEBEACONOFLIGHT>:

void show_BEHOLDTHEBEACONOFLIGHT(void)
{
	clearLCD();
    3296:	0e 94 f6 04 	call	0x9ec	; 0x9ec <clearLCD>
	showScreenLCD("***Behold the***","BEACON of LIGHT");
    329a:	80 e0       	ldi	r24, 0x00	; 0
    329c:	91 e0       	ldi	r25, 0x01	; 1
    329e:	60 ef       	ldi	r22, 0xF0	; 240
    32a0:	70 e0       	ldi	r23, 0x00	; 0
    32a2:	0e 94 fe 04 	call	0x9fc	; 0x9fc <_showScreenLCD_P>
}
    32a6:	08 95       	ret

000032a8 <show_NOBEACONFOUND>:

void show_NOBEACONFOUND(void)
{
	clearLCD();
    32a8:	0e 94 f6 04 	call	0x9ec	; 0x9ec <clearLCD>
	showScreenLCD("No beacon","found.");
    32ac:	86 ee       	ldi	r24, 0xE6	; 230
    32ae:	90 e0       	ldi	r25, 0x00	; 0
    32b0:	6f ed       	ldi	r22, 0xDF	; 223
    32b2:	70 e0       	ldi	r23, 0x00	; 0
    32b4:	0e 94 fe 04 	call	0x9fc	; 0x9fc <_showScreenLCD_P>
}
    32b8:	08 95       	ret

000032ba <__fixsfsi>:
    32ba:	04 d0       	rcall	.+8      	; 0x32c4 <__fixunssfsi>
    32bc:	68 94       	set
    32be:	b1 11       	cpse	r27, r1
    32c0:	8d c0       	rjmp	.+282    	; 0x33dc <__fp_szero>
    32c2:	08 95       	ret

000032c4 <__fixunssfsi>:
    32c4:	70 d0       	rcall	.+224    	; 0x33a6 <__fp_splitA>
    32c6:	88 f0       	brcs	.+34     	; 0x32ea <__fixunssfsi+0x26>
    32c8:	9f 57       	subi	r25, 0x7F	; 127
    32ca:	90 f0       	brcs	.+36     	; 0x32f0 <__fixunssfsi+0x2c>
    32cc:	b9 2f       	mov	r27, r25
    32ce:	99 27       	eor	r25, r25
    32d0:	b7 51       	subi	r27, 0x17	; 23
    32d2:	a0 f0       	brcs	.+40     	; 0x32fc <__fixunssfsi+0x38>
    32d4:	d1 f0       	breq	.+52     	; 0x330a <__fixunssfsi+0x46>
    32d6:	66 0f       	add	r22, r22
    32d8:	77 1f       	adc	r23, r23
    32da:	88 1f       	adc	r24, r24
    32dc:	99 1f       	adc	r25, r25
    32de:	1a f0       	brmi	.+6      	; 0x32e6 <__fixunssfsi+0x22>
    32e0:	ba 95       	dec	r27
    32e2:	c9 f7       	brne	.-14     	; 0x32d6 <__fixunssfsi+0x12>
    32e4:	12 c0       	rjmp	.+36     	; 0x330a <__fixunssfsi+0x46>
    32e6:	b1 30       	cpi	r27, 0x01	; 1
    32e8:	81 f0       	breq	.+32     	; 0x330a <__fixunssfsi+0x46>
    32ea:	77 d0       	rcall	.+238    	; 0x33da <__fp_zero>
    32ec:	b1 e0       	ldi	r27, 0x01	; 1
    32ee:	08 95       	ret
    32f0:	74 c0       	rjmp	.+232    	; 0x33da <__fp_zero>
    32f2:	67 2f       	mov	r22, r23
    32f4:	78 2f       	mov	r23, r24
    32f6:	88 27       	eor	r24, r24
    32f8:	b8 5f       	subi	r27, 0xF8	; 248
    32fa:	39 f0       	breq	.+14     	; 0x330a <__fixunssfsi+0x46>
    32fc:	b9 3f       	cpi	r27, 0xF9	; 249
    32fe:	cc f3       	brlt	.-14     	; 0x32f2 <__fixunssfsi+0x2e>
    3300:	86 95       	lsr	r24
    3302:	77 95       	ror	r23
    3304:	67 95       	ror	r22
    3306:	b3 95       	inc	r27
    3308:	d9 f7       	brne	.-10     	; 0x3300 <__fixunssfsi+0x3c>
    330a:	3e f4       	brtc	.+14     	; 0x331a <__fixunssfsi+0x56>
    330c:	90 95       	com	r25
    330e:	80 95       	com	r24
    3310:	70 95       	com	r23
    3312:	61 95       	neg	r22
    3314:	7f 4f       	sbci	r23, 0xFF	; 255
    3316:	8f 4f       	sbci	r24, 0xFF	; 255
    3318:	9f 4f       	sbci	r25, 0xFF	; 255
    331a:	08 95       	ret

0000331c <__floatunsisf>:
    331c:	e8 94       	clt
    331e:	09 c0       	rjmp	.+18     	; 0x3332 <__floatsisf+0x12>

00003320 <__floatsisf>:
    3320:	97 fb       	bst	r25, 7
    3322:	3e f4       	brtc	.+14     	; 0x3332 <__floatsisf+0x12>
    3324:	90 95       	com	r25
    3326:	80 95       	com	r24
    3328:	70 95       	com	r23
    332a:	61 95       	neg	r22
    332c:	7f 4f       	sbci	r23, 0xFF	; 255
    332e:	8f 4f       	sbci	r24, 0xFF	; 255
    3330:	9f 4f       	sbci	r25, 0xFF	; 255
    3332:	99 23       	and	r25, r25
    3334:	a9 f0       	breq	.+42     	; 0x3360 <__floatsisf+0x40>
    3336:	f9 2f       	mov	r31, r25
    3338:	96 e9       	ldi	r25, 0x96	; 150
    333a:	bb 27       	eor	r27, r27
    333c:	93 95       	inc	r25
    333e:	f6 95       	lsr	r31
    3340:	87 95       	ror	r24
    3342:	77 95       	ror	r23
    3344:	67 95       	ror	r22
    3346:	b7 95       	ror	r27
    3348:	f1 11       	cpse	r31, r1
    334a:	f8 cf       	rjmp	.-16     	; 0x333c <__floatsisf+0x1c>
    334c:	fa f4       	brpl	.+62     	; 0x338c <__floatsisf+0x6c>
    334e:	bb 0f       	add	r27, r27
    3350:	11 f4       	brne	.+4      	; 0x3356 <__floatsisf+0x36>
    3352:	60 ff       	sbrs	r22, 0
    3354:	1b c0       	rjmp	.+54     	; 0x338c <__floatsisf+0x6c>
    3356:	6f 5f       	subi	r22, 0xFF	; 255
    3358:	7f 4f       	sbci	r23, 0xFF	; 255
    335a:	8f 4f       	sbci	r24, 0xFF	; 255
    335c:	9f 4f       	sbci	r25, 0xFF	; 255
    335e:	16 c0       	rjmp	.+44     	; 0x338c <__floatsisf+0x6c>
    3360:	88 23       	and	r24, r24
    3362:	11 f0       	breq	.+4      	; 0x3368 <__floatsisf+0x48>
    3364:	96 e9       	ldi	r25, 0x96	; 150
    3366:	11 c0       	rjmp	.+34     	; 0x338a <__floatsisf+0x6a>
    3368:	77 23       	and	r23, r23
    336a:	21 f0       	breq	.+8      	; 0x3374 <__floatsisf+0x54>
    336c:	9e e8       	ldi	r25, 0x8E	; 142
    336e:	87 2f       	mov	r24, r23
    3370:	76 2f       	mov	r23, r22
    3372:	05 c0       	rjmp	.+10     	; 0x337e <__floatsisf+0x5e>
    3374:	66 23       	and	r22, r22
    3376:	71 f0       	breq	.+28     	; 0x3394 <__floatsisf+0x74>
    3378:	96 e8       	ldi	r25, 0x86	; 134
    337a:	86 2f       	mov	r24, r22
    337c:	70 e0       	ldi	r23, 0x00	; 0
    337e:	60 e0       	ldi	r22, 0x00	; 0
    3380:	2a f0       	brmi	.+10     	; 0x338c <__floatsisf+0x6c>
    3382:	9a 95       	dec	r25
    3384:	66 0f       	add	r22, r22
    3386:	77 1f       	adc	r23, r23
    3388:	88 1f       	adc	r24, r24
    338a:	da f7       	brpl	.-10     	; 0x3382 <__floatsisf+0x62>
    338c:	88 0f       	add	r24, r24
    338e:	96 95       	lsr	r25
    3390:	87 95       	ror	r24
    3392:	97 f9       	bld	r25, 7
    3394:	08 95       	ret

00003396 <__fp_split3>:
    3396:	57 fd       	sbrc	r21, 7
    3398:	90 58       	subi	r25, 0x80	; 128
    339a:	44 0f       	add	r20, r20
    339c:	55 1f       	adc	r21, r21
    339e:	59 f0       	breq	.+22     	; 0x33b6 <__fp_splitA+0x10>
    33a0:	5f 3f       	cpi	r21, 0xFF	; 255
    33a2:	71 f0       	breq	.+28     	; 0x33c0 <__fp_splitA+0x1a>
    33a4:	47 95       	ror	r20

000033a6 <__fp_splitA>:
    33a6:	88 0f       	add	r24, r24
    33a8:	97 fb       	bst	r25, 7
    33aa:	99 1f       	adc	r25, r25
    33ac:	61 f0       	breq	.+24     	; 0x33c6 <__fp_splitA+0x20>
    33ae:	9f 3f       	cpi	r25, 0xFF	; 255
    33b0:	79 f0       	breq	.+30     	; 0x33d0 <__fp_splitA+0x2a>
    33b2:	87 95       	ror	r24
    33b4:	08 95       	ret
    33b6:	12 16       	cp	r1, r18
    33b8:	13 06       	cpc	r1, r19
    33ba:	14 06       	cpc	r1, r20
    33bc:	55 1f       	adc	r21, r21
    33be:	f2 cf       	rjmp	.-28     	; 0x33a4 <__fp_split3+0xe>
    33c0:	46 95       	lsr	r20
    33c2:	f1 df       	rcall	.-30     	; 0x33a6 <__fp_splitA>
    33c4:	08 c0       	rjmp	.+16     	; 0x33d6 <__fp_splitA+0x30>
    33c6:	16 16       	cp	r1, r22
    33c8:	17 06       	cpc	r1, r23
    33ca:	18 06       	cpc	r1, r24
    33cc:	99 1f       	adc	r25, r25
    33ce:	f1 cf       	rjmp	.-30     	; 0x33b2 <__fp_splitA+0xc>
    33d0:	86 95       	lsr	r24
    33d2:	71 05       	cpc	r23, r1
    33d4:	61 05       	cpc	r22, r1
    33d6:	08 94       	sec
    33d8:	08 95       	ret

000033da <__fp_zero>:
    33da:	e8 94       	clt

000033dc <__fp_szero>:
    33dc:	bb 27       	eor	r27, r27
    33de:	66 27       	eor	r22, r22
    33e0:	77 27       	eor	r23, r23
    33e2:	cb 01       	movw	r24, r22
    33e4:	97 f9       	bld	r25, 7
    33e6:	08 95       	ret

000033e8 <__mulsf3>:
    33e8:	0b d0       	rcall	.+22     	; 0x3400 <__mulsf3x>
    33ea:	78 c0       	rjmp	.+240    	; 0x34dc <__fp_round>
    33ec:	69 d0       	rcall	.+210    	; 0x34c0 <__fp_pscA>
    33ee:	28 f0       	brcs	.+10     	; 0x33fa <__mulsf3+0x12>
    33f0:	6e d0       	rcall	.+220    	; 0x34ce <__fp_pscB>
    33f2:	18 f0       	brcs	.+6      	; 0x33fa <__mulsf3+0x12>
    33f4:	95 23       	and	r25, r21
    33f6:	09 f0       	breq	.+2      	; 0x33fa <__mulsf3+0x12>
    33f8:	5a c0       	rjmp	.+180    	; 0x34ae <__fp_inf>
    33fa:	5f c0       	rjmp	.+190    	; 0x34ba <__fp_nan>
    33fc:	11 24       	eor	r1, r1
    33fe:	ee cf       	rjmp	.-36     	; 0x33dc <__fp_szero>

00003400 <__mulsf3x>:
    3400:	ca df       	rcall	.-108    	; 0x3396 <__fp_split3>
    3402:	a0 f3       	brcs	.-24     	; 0x33ec <__mulsf3+0x4>

00003404 <__mulsf3_pse>:
    3404:	95 9f       	mul	r25, r21
    3406:	d1 f3       	breq	.-12     	; 0x33fc <__mulsf3+0x14>
    3408:	95 0f       	add	r25, r21
    340a:	50 e0       	ldi	r21, 0x00	; 0
    340c:	55 1f       	adc	r21, r21
    340e:	62 9f       	mul	r22, r18
    3410:	f0 01       	movw	r30, r0
    3412:	72 9f       	mul	r23, r18
    3414:	bb 27       	eor	r27, r27
    3416:	f0 0d       	add	r31, r0
    3418:	b1 1d       	adc	r27, r1
    341a:	63 9f       	mul	r22, r19
    341c:	aa 27       	eor	r26, r26
    341e:	f0 0d       	add	r31, r0
    3420:	b1 1d       	adc	r27, r1
    3422:	aa 1f       	adc	r26, r26
    3424:	64 9f       	mul	r22, r20
    3426:	66 27       	eor	r22, r22
    3428:	b0 0d       	add	r27, r0
    342a:	a1 1d       	adc	r26, r1
    342c:	66 1f       	adc	r22, r22
    342e:	82 9f       	mul	r24, r18
    3430:	22 27       	eor	r18, r18
    3432:	b0 0d       	add	r27, r0
    3434:	a1 1d       	adc	r26, r1
    3436:	62 1f       	adc	r22, r18
    3438:	73 9f       	mul	r23, r19
    343a:	b0 0d       	add	r27, r0
    343c:	a1 1d       	adc	r26, r1
    343e:	62 1f       	adc	r22, r18
    3440:	83 9f       	mul	r24, r19
    3442:	a0 0d       	add	r26, r0
    3444:	61 1d       	adc	r22, r1
    3446:	22 1f       	adc	r18, r18
    3448:	74 9f       	mul	r23, r20
    344a:	33 27       	eor	r19, r19
    344c:	a0 0d       	add	r26, r0
    344e:	61 1d       	adc	r22, r1
    3450:	23 1f       	adc	r18, r19
    3452:	84 9f       	mul	r24, r20
    3454:	60 0d       	add	r22, r0
    3456:	21 1d       	adc	r18, r1
    3458:	82 2f       	mov	r24, r18
    345a:	76 2f       	mov	r23, r22
    345c:	6a 2f       	mov	r22, r26
    345e:	11 24       	eor	r1, r1
    3460:	9f 57       	subi	r25, 0x7F	; 127
    3462:	50 40       	sbci	r21, 0x00	; 0
    3464:	8a f0       	brmi	.+34     	; 0x3488 <__mulsf3_pse+0x84>
    3466:	e1 f0       	breq	.+56     	; 0x34a0 <__mulsf3_pse+0x9c>
    3468:	88 23       	and	r24, r24
    346a:	4a f0       	brmi	.+18     	; 0x347e <__mulsf3_pse+0x7a>
    346c:	ee 0f       	add	r30, r30
    346e:	ff 1f       	adc	r31, r31
    3470:	bb 1f       	adc	r27, r27
    3472:	66 1f       	adc	r22, r22
    3474:	77 1f       	adc	r23, r23
    3476:	88 1f       	adc	r24, r24
    3478:	91 50       	subi	r25, 0x01	; 1
    347a:	50 40       	sbci	r21, 0x00	; 0
    347c:	a9 f7       	brne	.-22     	; 0x3468 <__mulsf3_pse+0x64>
    347e:	9e 3f       	cpi	r25, 0xFE	; 254
    3480:	51 05       	cpc	r21, r1
    3482:	70 f0       	brcs	.+28     	; 0x34a0 <__mulsf3_pse+0x9c>
    3484:	14 c0       	rjmp	.+40     	; 0x34ae <__fp_inf>
    3486:	aa cf       	rjmp	.-172    	; 0x33dc <__fp_szero>
    3488:	5f 3f       	cpi	r21, 0xFF	; 255
    348a:	ec f3       	brlt	.-6      	; 0x3486 <__mulsf3_pse+0x82>
    348c:	98 3e       	cpi	r25, 0xE8	; 232
    348e:	dc f3       	brlt	.-10     	; 0x3486 <__mulsf3_pse+0x82>
    3490:	86 95       	lsr	r24
    3492:	77 95       	ror	r23
    3494:	67 95       	ror	r22
    3496:	b7 95       	ror	r27
    3498:	f7 95       	ror	r31
    349a:	e7 95       	ror	r30
    349c:	9f 5f       	subi	r25, 0xFF	; 255
    349e:	c1 f7       	brne	.-16     	; 0x3490 <__mulsf3_pse+0x8c>
    34a0:	fe 2b       	or	r31, r30
    34a2:	88 0f       	add	r24, r24
    34a4:	91 1d       	adc	r25, r1
    34a6:	96 95       	lsr	r25
    34a8:	87 95       	ror	r24
    34aa:	97 f9       	bld	r25, 7
    34ac:	08 95       	ret

000034ae <__fp_inf>:
    34ae:	97 f9       	bld	r25, 7
    34b0:	9f 67       	ori	r25, 0x7F	; 127
    34b2:	80 e8       	ldi	r24, 0x80	; 128
    34b4:	70 e0       	ldi	r23, 0x00	; 0
    34b6:	60 e0       	ldi	r22, 0x00	; 0
    34b8:	08 95       	ret

000034ba <__fp_nan>:
    34ba:	9f ef       	ldi	r25, 0xFF	; 255
    34bc:	80 ec       	ldi	r24, 0xC0	; 192
    34be:	08 95       	ret

000034c0 <__fp_pscA>:
    34c0:	00 24       	eor	r0, r0
    34c2:	0a 94       	dec	r0
    34c4:	16 16       	cp	r1, r22
    34c6:	17 06       	cpc	r1, r23
    34c8:	18 06       	cpc	r1, r24
    34ca:	09 06       	cpc	r0, r25
    34cc:	08 95       	ret

000034ce <__fp_pscB>:
    34ce:	00 24       	eor	r0, r0
    34d0:	0a 94       	dec	r0
    34d2:	12 16       	cp	r1, r18
    34d4:	13 06       	cpc	r1, r19
    34d6:	14 06       	cpc	r1, r20
    34d8:	05 06       	cpc	r0, r21
    34da:	08 95       	ret

000034dc <__fp_round>:
    34dc:	09 2e       	mov	r0, r25
    34de:	03 94       	inc	r0
    34e0:	00 0c       	add	r0, r0
    34e2:	11 f4       	brne	.+4      	; 0x34e8 <__fp_round+0xc>
    34e4:	88 23       	and	r24, r24
    34e6:	52 f0       	brmi	.+20     	; 0x34fc <__fp_round+0x20>
    34e8:	bb 0f       	add	r27, r27
    34ea:	40 f4       	brcc	.+16     	; 0x34fc <__fp_round+0x20>
    34ec:	bf 2b       	or	r27, r31
    34ee:	11 f4       	brne	.+4      	; 0x34f4 <__fp_round+0x18>
    34f0:	60 ff       	sbrs	r22, 0
    34f2:	04 c0       	rjmp	.+8      	; 0x34fc <__fp_round+0x20>
    34f4:	6f 5f       	subi	r22, 0xFF	; 255
    34f6:	7f 4f       	sbci	r23, 0xFF	; 255
    34f8:	8f 4f       	sbci	r24, 0xFF	; 255
    34fa:	9f 4f       	sbci	r25, 0xFF	; 255
    34fc:	08 95       	ret

000034fe <__udivmodhi4>:
    34fe:	aa 1b       	sub	r26, r26
    3500:	bb 1b       	sub	r27, r27
    3502:	51 e1       	ldi	r21, 0x11	; 17
    3504:	07 c0       	rjmp	.+14     	; 0x3514 <__udivmodhi4_ep>

00003506 <__udivmodhi4_loop>:
    3506:	aa 1f       	adc	r26, r26
    3508:	bb 1f       	adc	r27, r27
    350a:	a6 17       	cp	r26, r22
    350c:	b7 07       	cpc	r27, r23
    350e:	10 f0       	brcs	.+4      	; 0x3514 <__udivmodhi4_ep>
    3510:	a6 1b       	sub	r26, r22
    3512:	b7 0b       	sbc	r27, r23

00003514 <__udivmodhi4_ep>:
    3514:	88 1f       	adc	r24, r24
    3516:	99 1f       	adc	r25, r25
    3518:	5a 95       	dec	r21
    351a:	a9 f7       	brne	.-22     	; 0x3506 <__udivmodhi4_loop>
    351c:	80 95       	com	r24
    351e:	90 95       	com	r25
    3520:	bc 01       	movw	r22, r24
    3522:	cd 01       	movw	r24, r26
    3524:	08 95       	ret

00003526 <__divmodhi4>:
    3526:	97 fb       	bst	r25, 7
    3528:	09 2e       	mov	r0, r25
    352a:	07 26       	eor	r0, r23
    352c:	0a d0       	rcall	.+20     	; 0x3542 <__divmodhi4_neg1>
    352e:	77 fd       	sbrc	r23, 7
    3530:	04 d0       	rcall	.+8      	; 0x353a <__divmodhi4_neg2>
    3532:	e5 df       	rcall	.-54     	; 0x34fe <__udivmodhi4>
    3534:	06 d0       	rcall	.+12     	; 0x3542 <__divmodhi4_neg1>
    3536:	00 20       	and	r0, r0
    3538:	1a f4       	brpl	.+6      	; 0x3540 <__divmodhi4_exit>

0000353a <__divmodhi4_neg2>:
    353a:	70 95       	com	r23
    353c:	61 95       	neg	r22
    353e:	7f 4f       	sbci	r23, 0xFF	; 255

00003540 <__divmodhi4_exit>:
    3540:	08 95       	ret

00003542 <__divmodhi4_neg1>:
    3542:	f6 f7       	brtc	.-4      	; 0x3540 <__divmodhi4_exit>
    3544:	90 95       	com	r25
    3546:	81 95       	neg	r24
    3548:	9f 4f       	sbci	r25, 0xFF	; 255
    354a:	08 95       	ret

0000354c <itoa>:
    354c:	fb 01       	movw	r30, r22
    354e:	9f 01       	movw	r18, r30
    3550:	e8 94       	clt
    3552:	42 30       	cpi	r20, 0x02	; 2
    3554:	c4 f0       	brlt	.+48     	; 0x3586 <itoa+0x3a>
    3556:	45 32       	cpi	r20, 0x25	; 37
    3558:	b4 f4       	brge	.+44     	; 0x3586 <itoa+0x3a>
    355a:	4a 30       	cpi	r20, 0x0A	; 10
    355c:	29 f4       	brne	.+10     	; 0x3568 <itoa+0x1c>
    355e:	97 fb       	bst	r25, 7
    3560:	1e f4       	brtc	.+6      	; 0x3568 <itoa+0x1c>
    3562:	90 95       	com	r25
    3564:	81 95       	neg	r24
    3566:	9f 4f       	sbci	r25, 0xFF	; 255
    3568:	64 2f       	mov	r22, r20
    356a:	77 27       	eor	r23, r23
    356c:	0e 94 7f 1a 	call	0x34fe	; 0x34fe <__udivmodhi4>
    3570:	80 5d       	subi	r24, 0xD0	; 208
    3572:	8a 33       	cpi	r24, 0x3A	; 58
    3574:	0c f0       	brlt	.+2      	; 0x3578 <itoa+0x2c>
    3576:	89 5d       	subi	r24, 0xD9	; 217
    3578:	81 93       	st	Z+, r24
    357a:	cb 01       	movw	r24, r22
    357c:	00 97       	sbiw	r24, 0x00	; 0
    357e:	a1 f7       	brne	.-24     	; 0x3568 <itoa+0x1c>
    3580:	16 f4       	brtc	.+4      	; 0x3586 <itoa+0x3a>
    3582:	5d e2       	ldi	r21, 0x2D	; 45
    3584:	51 93       	st	Z+, r21
    3586:	10 82       	st	Z, r1
    3588:	c9 01       	movw	r24, r18
    358a:	0c 94 c7 1a 	jmp	0x358e	; 0x358e <strrev>

0000358e <strrev>:
    358e:	dc 01       	movw	r26, r24
    3590:	fc 01       	movw	r30, r24
    3592:	67 2f       	mov	r22, r23
    3594:	71 91       	ld	r23, Z+
    3596:	77 23       	and	r23, r23
    3598:	e1 f7       	brne	.-8      	; 0x3592 <strrev+0x4>
    359a:	32 97       	sbiw	r30, 0x02	; 2
    359c:	04 c0       	rjmp	.+8      	; 0x35a6 <strrev+0x18>
    359e:	7c 91       	ld	r23, X
    35a0:	6d 93       	st	X+, r22
    35a2:	70 83       	st	Z, r23
    35a4:	62 91       	ld	r22, -Z
    35a6:	ae 17       	cp	r26, r30
    35a8:	bf 07       	cpc	r27, r31
    35aa:	c8 f3       	brcs	.-14     	; 0x359e <strrev+0x10>
    35ac:	08 95       	ret

000035ae <_exit>:
    35ae:	f8 94       	cli

000035b0 <__stop_program>:
    35b0:	ff cf       	rjmp	.-2      	; 0x35b0 <__stop_program>
