   1               		.file	"MoveControl.c"
   2               	__SREG__ = 0x3f
   3               	__SP_H__ = 0x3e
   4               	__SP_L__ = 0x3d
   5               	__CCP__ = 0x34
   6               	__tmp_reg__ = 0
   7               	__zero_reg__ = 1
  15               	.Ltext0:
  16               	.global	initMoveControl
  18               	initMoveControl:
  19               	.LFB6:
  20               	.LM1:
  21               	/* prologue: function */
  22               	/* frame size = 0 */
  23               	/* stack size = 0 */
  24               	.L__stack_usage = 0
  25               	.LM2:
  26 0000 83E0      		ldi r24,lo8(3)
  27 0002 8093 0000 		sts kState,r24
  28               	.LM3:
  29 0006 80EA      		ldi r24,lo8(160)
  30 0008 90E0      		ldi r25,hi8(160)
  31 000a 9093 0000 		sts conditionedWallDistance+1,r25
  32 000e 8093 0000 		sts conditionedWallDistance,r24
  33               	/* epilogue start */
  34               	.LM4:
  35 0012 0895      		ret
  36               	.LFE6:
  38               	.global	updateMoveControl
  40               	updateMoveControl:
  41               	.LFB7:
  42               	.LM5:
  43               	/* prologue: function */
  44               	/* frame size = 0 */
  45               	/* stack size = 0 */
  46               	.L__stack_usage = 0
  47               	/* epilogue start */
  48               	.LM6:
  49 0014 0895      		ret
  50               	.LFE7:
  52               	.global	moveForward
  54               	moveForward:
  55               	.LFB8:
  56               	.LM7:
  57 0016 4F92      		push r4
  58 0018 5F92      		push r5
  59 001a 7F92      		push r7
  60 001c 8F92      		push r8
  61 001e 9F92      		push r9
  62 0020 AF92      		push r10
  63 0022 BF92      		push r11
  64 0024 CF92      		push r12
  65 0026 DF92      		push r13
  66 0028 EF92      		push r14
  67 002a FF92      		push r15
  68 002c 0F93      		push r16
  69 002e 1F93      		push r17
  70 0030 CF93      		push r28
  71 0032 DF93      		push r29
  72               	/* prologue: function */
  73               	/* frame size = 0 */
  74               	/* stack size = 15 */
  75               	.L__stack_usage = 15
  76               	.LM8:
  77 0034 81E0      		ldi r24,lo8(1)
  78 0036 8093 0000 		sts kState,r24
  79               	.LVL0:
  80               	.LM9:
  81 003a 4091 0000 		lds r20,cellDist
  82 003e 5091 0000 		lds r21,cellDist+1
  83 0042 8091 0000 		lds r24,cruiseSpeed
  84 0046 60E0      		ldi r22,lo8(0)
  85 0048 20E0      		ldi r18,lo8(0)
  86 004a 0E94 0000 		call move
  87               	.LM10:
  88 004e 84E6      		ldi r24,lo8(100)
  89 0050 90E0      		ldi r25,hi8(100)
  90 0052 0E94 0000 		call mSleep
  91               	.LM11:
  92 0056 AA24      		clr r10
  93 0058 BB24      		clr r11
  94               	.LM12:
  95 005a 8824      		clr r8
  96 005c 9924      		clr r9
  97               	.LBB2:
  98               	.LM13:
  99 005e 82E0      		ldi r24,lo8(2)
 100 0060 482E      		mov r4,r24
 101 0062 512C      		mov r5,__zero_reg__
 102               	.LBE2:
 103               	.LM14:
 104 0064 00C0      		rjmp .L4
 105               	.LVL1:
 106               	.L21:
 107               	.LBB3:
 108               	.LM15:
 109 0066 85E0      		ldi r24,lo8(5)
 110 0068 6AE0      		ldi r22,lo8(10)
 111 006a 0E94 0000 		call readAvgADC
 112 006e 6C01      		movw r12,r24
 113               	.LVL2:
 114               	.LM16:
 115 0070 82E0      		ldi r24,lo8(2)
 116               	.LVL3:
 117 0072 6AE0      		ldi r22,lo8(10)
 118 0074 0E94 0000 		call readAvgADC
 119 0078 8C01      		movw r16,r24
 120               	.LVL4:
 121               	.LM17:
 122 007a 84E0      		ldi r24,lo8(4)
 123               	.LVL5:
 124 007c 6AE0      		ldi r22,lo8(10)
 125 007e 0E94 0000 		call readAvgADC
 126 0082 7C01      		movw r14,r24
 127               	.LVL6:
 128               	.LM18:
 129 0084 83E0      		ldi r24,lo8(3)
 130               	.LVL7:
 131 0086 6AE0      		ldi r22,lo8(10)
 132 0088 0E94 0000 		call readAvgADC
 133 008c FC01      		movw r30,r24
 134               	.LVL8:
 135               	.LM19:
 136 008e 8091 0000 		lds r24,higherAvgWallBoundary
 137 0092 9091 0000 		lds r25,higherAvgWallBoundary+1
 138               	.LVL9:
 139 0096 7724      		clr r7
 140 0098 7394      		inc r7
 141 009a C816      		cp r12,r24
 142 009c D906      		cpc r13,r25
 143 009e 00F4      		brsh .L5
 144 00a0 7724      		clr r7
 145               	.L5:
 146               	.LVL10:
 147               	.LM20:
 148 00a2 41E0      		ldi r20,lo8(1)
 149 00a4 0817      		cp r16,r24
 150 00a6 1907      		cpc r17,r25
 151 00a8 00F4      		brsh .L6
 152 00aa 40E0      		ldi r20,lo8(0)
 153               	.L6:
 154               	.LVL11:
 155               	.LM21:
 156 00ac 31E0      		ldi r19,lo8(1)
 157 00ae E816      		cp r14,r24
 158 00b0 F906      		cpc r15,r25
 159 00b2 00F4      		brsh .L7
 160 00b4 30E0      		ldi r19,lo8(0)
 161               	.L7:
 162               	.LVL12:
 163               	.LM22:
 164 00b6 21E0      		ldi r18,lo8(1)
 165 00b8 E817      		cp r30,r24
 166 00ba F907      		cpc r31,r25
 167 00bc 00F4      		brsh .L8
 168 00be 20E0      		ldi r18,lo8(0)
 169               	.L8:
 170               	.LVL13:
 171               	.LM23:
 172 00c0 7720      		tst r7
 173 00c2 01F0      		breq .L9
 174               	.LM24:
 175 00c4 4423      		tst r20
 176 00c6 01F0      		breq .L9
 177               	.LM25:
 178 00c8 C601      		movw r24,r12
 179 00ca 801B      		sub r24,r16
 180 00cc 910B      		sbc r25,r17
 181 00ce 6091 0000 		lds r22,dirErrorFactor
 182 00d2 7091 0000 		lds r23,dirErrorFactor+1
 183 00d6 0E94 0000 		call __udivmodhi4
 184 00da EB01      		movw r28,r22
 185               	.LVL14:
 186               	.LM26:
 187 00dc 3323      		tst r19
 188 00de 01F0      		breq .L10
 189               	.LM27:
 190 00e0 C601      		movw r24,r12
 191 00e2 8E19      		sub r24,r14
 192 00e4 9F09      		sbc r25,r15
 193 00e6 6091 0000 		lds r22,distErrorFactor
 194 00ea 7091 0000 		lds r23,distErrorFactor+1
 195               	.LVL15:
 196 00ee 0E94 0000 		call __udivmodhi4
 197 00f2 4B01      		movw r8,r22
 198 00f4 00C0      		rjmp .L11
 199               	.L10:
 200 00f6 6091 0000 		lds r22,distErrorFactor
 201 00fa 7091 0000 		lds r23,distErrorFactor+1
 202               	.LM28:
 203 00fe 2223      		tst r18
 204 0100 01F0      		breq .L12
 205               	.LM29:
 206 0102 C801      		movw r24,r16
 207 0104 8E1B      		sub r24,r30
 208 0106 9F0B      		sbc r25,r31
 209 0108 00C0      		rjmp .L27
 210               	.L12:
 211               	.LM30:
 212 010a 8091 0000 		lds r24,conditionedWallDistance
 213 010e 9091 0000 		lds r25,conditionedWallDistance+1
 214 0112 9601      		movw r18,r12
 215               	.LVL16:
 216 0114 281B      		sub r18,r24
 217 0116 390B      		sbc r19,r25
 218 0118 C901      		movw r24,r18
 219               	.L27:
 220 011a 0E94 0000 		call __udivmodhi4
 221 011e 4B01      		movw r8,r22
 222 0120 00C0      		rjmp .L23
 223               	.LVL17:
 224               	.L9:
 225               	.LM31:
 226 0122 3323      		tst r19
 227 0124 01F4      		brne .+2
 228 0126 00C0      		rjmp .L14
 229 0128 C0E0      		ldi r28,lo8(0)
 230 012a D0E0      		ldi r29,hi8(0)
 231               	.LVL18:
 232               	.L11:
 233               	.LM32:
 234 012c 2223      		tst r18
 235 012e 01F4      		brne .+2
 236 0130 00C0      		rjmp .L23
 237               	.LM33:
 238 0132 C701      		movw r24,r14
 239 0134 8E1B      		sub r24,r30
 240 0136 9F0B      		sbc r25,r31
 241 0138 6091 0000 		lds r22,dirErrorFactor
 242 013c 7091 0000 		lds r23,dirErrorFactor+1
 243 0140 0E94 0000 		call __udivmodhi4
 244 0144 9B01      		movw r18,r22
 245               	.LVL19:
 246               	.LM34:
 247 0146 7720      		tst r7
 248 0148 01F0      		breq .L16
 249               	.LM35:
 250 014a C701      		movw r24,r14
 251 014c 8C19      		sub r24,r12
 252 014e 9D09      		sbc r25,r13
 253 0150 6091 0000 		lds r22,distErrorFactor
 254 0154 7091 0000 		lds r23,distErrorFactor+1
 255 0158 0E94 0000 		call __udivmodhi4
 256 015c 5B01      		movw r10,r22
 257               	.LM36:
 258 015e 4423      		tst r20
 259 0160 01F4      		brne .L17
 260 0162 00C0      		rjmp .L20
 261               	.L16:
 262 0164 6091 0000 		lds r22,distErrorFactor
 263 0168 7091 0000 		lds r23,distErrorFactor+1
 264               	.LM37:
 265 016c 4423      		tst r20
 266 016e 01F0      		breq .L18
 267               	.LM38:
 268 0170 CF01      		movw r24,r30
 269 0172 801B      		sub r24,r16
 270 0174 910B      		sbc r25,r17
 271 0176 00C0      		rjmp .L26
 272               	.L18:
 273               	.LM39:
 274 0178 8091 0000 		lds r24,conditionedWallDistance
 275 017c 9091 0000 		lds r25,conditionedWallDistance+1
 276 0180 A701      		movw r20,r14
 277               	.LVL20:
 278 0182 481B      		sub r20,r24
 279 0184 590B      		sbc r21,r25
 280 0186 CA01      		movw r24,r20
 281               	.L26:
 282 0188 0E94 0000 		call __udivmodhi4
 283 018c 5B01      		movw r10,r22
 284 018e 00C0      		rjmp .L20
 285               	.LVL21:
 286               	.L17:
 287               	.LM40:
 288 0190 CF01      		movw r24,r30
 289 0192 800F      		add r24,r16
 290 0194 911F      		adc r25,r17
 291 0196 B201      		movw r22,r4
 292 0198 0E94 0000 		call __divmodhi4
 293 019c FB01      		movw r30,r22
 294               	.LVL22:
 295 019e C701      		movw r24,r14
 296 01a0 8C0D      		add r24,r12
 297 01a2 9D1D      		adc r25,r13
 298 01a4 B201      		movw r22,r4
 299 01a6 0E94 0000 		call __divmodhi4
 300 01aa E60F      		add r30,r22
 301 01ac F71F      		adc r31,r23
 302 01ae CF01      		movw r24,r30
 303 01b0 B201      		movw r22,r4
 304 01b2 0E94 0000 		call __divmodhi4
 305 01b6 7093 0000 		sts conditionedWallDistance+1,r23
 306 01ba 6093 0000 		sts conditionedWallDistance,r22
 307 01be 00C0      		rjmp .L20
 308               	.LVL23:
 309               	.L22:
 310               	.LM41:
 311 01c0 2223      		tst r18
 312 01c2 01F0      		breq .L25
 313 01c4 4423      		tst r20
 314 01c6 01F0      		breq .L25
 315               	.LM42:
 316 01c8 2091 0000 		lds r18,distErrorFactor
 317 01cc 3091 0000 		lds r19,distErrorFactor+1
 318               	.LVL24:
 319 01d0 C801      		movw r24,r16
 320 01d2 8E1B      		sub r24,r30
 321 01d4 9F0B      		sbc r25,r31
 322 01d6 B901      		movw r22,r18
 323 01d8 0E94 0000 		call __udivmodhi4
 324 01dc 4B01      		movw r8,r22
 325               	.LM43:
 326 01de CF01      		movw r24,r30
 327 01e0 801B      		sub r24,r16
 328 01e2 910B      		sbc r25,r17
 329 01e4 B901      		movw r22,r18
 330 01e6 0E94 0000 		call __udivmodhi4
 331 01ea 5B01      		movw r10,r22
 332               	.L25:
 333               	.LM44:
 334 01ec 20E0      		ldi r18,lo8(0)
 335 01ee 30E0      		ldi r19,hi8(0)
 336 01f0 C0E0      		ldi r28,lo8(0)
 337 01f2 D0E0      		ldi r29,hi8(0)
 338               	.LVL25:
 339               	.L20:
 340               	.LM45:
 341 01f4 8091 0000 		lds r24,cruiseSpeed
 342 01f8 AE01      		movw r20,r28
 343 01fa 480D      		add r20,r8
 344 01fc 622F      		mov r22,r18
 345 01fe 6A0D      		add r22,r10
 346 0200 680F      		add r22,r24
 347 0202 840F      		add r24,r20
 348 0204 0E94 0000 		call moveAtSpeed
 349               	.LVL26:
 350               	.LM46:
 351 0208 0E94 0000 		call task_checkINT0
 352               	.LM47:
 353 020c 0E94 0000 		call task_I2CTWI
 354               	.LM48:
 355 0210 0E94 0000 		call checkProcessEndedAbruptly
 356               	.LVL27:
 357               	.L4:
 358               	.LBE3:
 359               	.LM49:
 360 0214 8091 0000 		lds r24,drive_status
 361 0218 80FF      		sbrs r24,0
 362 021a 00C0      		rjmp .L21
 363               	.LM50:
 364 021c 0E94 0000 		call stop
 365               	.LM51:
 366 0220 83E0      		ldi r24,lo8(3)
 367 0222 8093 0000 		sts kState,r24
 368               	/* epilogue start */
 369               	.LM52:
 370 0226 DF91      		pop r29
 371 0228 CF91      		pop r28
 372 022a 1F91      		pop r17
 373 022c 0F91      		pop r16
 374 022e FF90      		pop r15
 375 0230 EF90      		pop r14
 376 0232 DF90      		pop r13
 377 0234 CF90      		pop r12
 378 0236 BF90      		pop r11
 379 0238 AF90      		pop r10
 380 023a 9F90      		pop r9
 381 023c 8F90      		pop r8
 382 023e 7F90      		pop r7
 383 0240 5F90      		pop r5
 384 0242 4F90      		pop r4
 385 0244 0895      		ret
 386               	.LVL28:
 387               	.L14:
 388               	.LBB4:
 389               	.LM53:
 390 0246 7720      		tst r7
 391 0248 01F4      		brne .+2
 392 024a 00C0      		rjmp .L22
 393 024c 00C0      		rjmp .L25
 394               	.LVL29:
 395               	.L23:
 396               	.LM54:
 397 024e 20E0      		ldi r18,lo8(0)
 398 0250 30E0      		ldi r19,hi8(0)
 399 0252 00C0      		rjmp .L20
 400               	.LBE4:
 401               	.LFE8:
 403               	.global	turnLeft
 405               	turnLeft:
 406               	.LFB9:
 407               	.LM55:
 408               	/* prologue: function */
 409               	/* frame size = 0 */
 410               	/* stack size = 0 */
 411               	.L__stack_usage = 0
 412               	.LM56:
 413 0254 82E0      		ldi r24,lo8(2)
 414 0256 8093 0000 		sts kState,r24
 415               	.LM57:
 416 025a 8091 0000 		lds r24,dist360
 417 025e 9091 0000 		lds r25,dist360+1
 418 0262 69E1      		ldi r22,lo8(25)
 419 0264 70E0      		ldi r23,hi8(25)
 420 0266 0E94 0000 		call __divmodhi4
 421 026a AB01      		movw r20,r22
 422 026c 8091 0000 		lds r24,cruiseSpeed
 423 0270 62E0      		ldi r22,lo8(2)
 424 0272 21E0      		ldi r18,lo8(1)
 425 0274 0E94 0000 		call rotate
 426               	.LM58:
 427 0278 83E0      		ldi r24,lo8(3)
 428 027a 8093 0000 		sts kState,r24
 429               	/* epilogue start */
 430               	.LM59:
 431 027e 0895      		ret
 432               	.LFE9:
 434               	.global	turnRight
 436               	turnRight:
 437               	.LFB10:
 438               	.LM60:
 439               	/* prologue: function */
 440               	/* frame size = 0 */
 441               	/* stack size = 0 */
 442               	.L__stack_usage = 0
 443               	.LM61:
 444 0280 82E0      		ldi r24,lo8(2)
 445 0282 8093 0000 		sts kState,r24
 446               	.LM62:
 447 0286 8091 0000 		lds r24,dist360
 448 028a 9091 0000 		lds r25,dist360+1
 449 028e 69E1      		ldi r22,lo8(25)
 450 0290 70E0      		ldi r23,hi8(25)
 451 0292 0E94 0000 		call __divmodhi4
 452 0296 AB01      		movw r20,r22
 453 0298 8091 0000 		lds r24,cruiseSpeed
 454 029c 63E0      		ldi r22,lo8(3)
 455 029e 21E0      		ldi r18,lo8(1)
 456 02a0 0E94 0000 		call rotate
 457               	.LM63:
 458 02a4 83E0      		ldi r24,lo8(3)
 459 02a6 8093 0000 		sts kState,r24
 460               	/* epilogue start */
 461               	.LM64:
 462 02aa 0895      		ret
 463               	.LFE10:
 465               	.global	turn180
 467               	turn180:
 468               	.LFB11:
 469               	.LM65:
 470               	/* prologue: function */
 471               	/* frame size = 0 */
 472               	/* stack size = 0 */
 473               	.L__stack_usage = 0
 474               	.LM66:
 475 02ac 82E0      		ldi r24,lo8(2)
 476 02ae 8093 0000 		sts kState,r24
 477               	.LM67:
 478 02b2 8091 0000 		lds r24,dist360
 479 02b6 9091 0000 		lds r25,dist360+1
 480 02ba 880F      		lsl r24
 481 02bc 991F      		rol r25
 482 02be 69E1      		ldi r22,lo8(25)
 483 02c0 70E0      		ldi r23,hi8(25)
 484 02c2 0E94 0000 		call __divmodhi4
 485 02c6 AB01      		movw r20,r22
 486 02c8 8091 0000 		lds r24,cruiseSpeed
 487 02cc 62E0      		ldi r22,lo8(2)
 488 02ce 21E0      		ldi r18,lo8(1)
 489 02d0 0E94 0000 		call rotate
 490               	.LM68:
 491 02d4 83E0      		ldi r24,lo8(3)
 492 02d6 8093 0000 		sts kState,r24
 493               	/* epilogue start */
 494               	.LM69:
 495 02da 0895      		ret
 496               	.LFE11:
 498               	.global	cellDist
 499               		.data
 502               	cellDist:
 503 0000 0807      		.word	1800
 504               	.global	cruiseSpeed
 507               	cruiseSpeed:
 508 0002 28        		.byte	40
 509               	.global	dirErrorFactor
 512               	dirErrorFactor:
 513 0003 3200      		.word	50
 514               	.global	distErrorFactor
 517               	distErrorFactor:
 518 0005 0800      		.word	8
 519               		.comm timer,2,1
 520               		.comm interrupt_status,1,1
 521               		.comm status,1,1
 522               		.comm drive_status,1,1
 523               		.comm dist360,2,1
 524               		.comm cells,490,1
 525               		.comm invCells,490,1
 526               		.comm dir,1,1
 527               		.comm cellCounter,2,1
 528               		.comm totalCellsFindCourse,2,1
 529               		.comm totalCellsReturnCourse,2,1
 530               		.comm softEndFind,1,1
 531               		.comm softEndReturn,1,1
 532               		.comm beaconDetectedOnCell,2,1
 533               		.comm mState,1,1
 534               		.comm kState,1,1
 535               		.comm lowerAvgWallBoundary,2,1
 536               		.comm higherAvgWallBoundary,2,1
 537               		.comm conditionedWallDistance,2,1
 538               		.comm detecting,1,1
 539               		.comm detected,1,1
 604               	.Letext0:
DEFINED SYMBOLS
                            *ABS*:0000000000000000 MoveControl.c
     /tmp/ccCsdXjC.s:2      *ABS*:000000000000003f __SREG__
     /tmp/ccCsdXjC.s:3      *ABS*:000000000000003e __SP_H__
     /tmp/ccCsdXjC.s:4      *ABS*:000000000000003d __SP_L__
     /tmp/ccCsdXjC.s:5      *ABS*:0000000000000034 __CCP__
     /tmp/ccCsdXjC.s:6      *ABS*:0000000000000000 __tmp_reg__
     /tmp/ccCsdXjC.s:7      *ABS*:0000000000000001 __zero_reg__
     /tmp/ccCsdXjC.s:18     .text:0000000000000000 initMoveControl
                            *COM*:0000000000000001 kState
                            *COM*:0000000000000002 conditionedWallDistance
     /tmp/ccCsdXjC.s:40     .text:0000000000000014 updateMoveControl
     /tmp/ccCsdXjC.s:54     .text:0000000000000016 moveForward
     /tmp/ccCsdXjC.s:502    .data:0000000000000000 cellDist
     /tmp/ccCsdXjC.s:507    .data:0000000000000002 cruiseSpeed
                            *COM*:0000000000000002 higherAvgWallBoundary
     /tmp/ccCsdXjC.s:512    .data:0000000000000003 dirErrorFactor
     /tmp/ccCsdXjC.s:517    .data:0000000000000005 distErrorFactor
                            *COM*:0000000000000001 drive_status
     /tmp/ccCsdXjC.s:405    .text:0000000000000254 turnLeft
                            *COM*:0000000000000002 dist360
     /tmp/ccCsdXjC.s:436    .text:0000000000000280 turnRight
     /tmp/ccCsdXjC.s:467    .text:00000000000002ac turn180
                            *COM*:0000000000000002 timer
                            *COM*:0000000000000001 interrupt_status
                            *COM*:0000000000000001 status
                            *COM*:00000000000001ea cells
                            *COM*:00000000000001ea invCells
                            *COM*:0000000000000001 dir
                            *COM*:0000000000000002 cellCounter
                            *COM*:0000000000000002 totalCellsFindCourse
                            *COM*:0000000000000002 totalCellsReturnCourse
                            *COM*:0000000000000001 softEndFind
                            *COM*:0000000000000001 softEndReturn
                            *COM*:0000000000000002 beaconDetectedOnCell
                            *COM*:0000000000000001 mState
                            *COM*:0000000000000002 lowerAvgWallBoundary
                            *COM*:0000000000000001 detecting
                            *COM*:0000000000000001 detected

UNDEFINED SYMBOLS
move
mSleep
readAvgADC
__udivmodhi4
__divmodhi4
moveAtSpeed
task_checkINT0
task_I2CTWI
checkProcessEndedAbruptly
stop
rotate
__do_copy_data
__do_clear_bss
